Archive member included because of file (symbol)

/opt/xmingw/lib/gcc-lib/i386-mingw32msvc/3.3.1/../../../../i386-mingw32msvc/lib/libmingw32.a(gccmain.o)
                              /opt/xmingw/lib/gcc-lib/i386-mingw32msvc/3.3.1/../../../../i386-mingw32msvc/lib/dllcrt2.o (__main)
/opt/xmingw/lib/gcc-lib/i386-mingw32msvc/3.3.1/../../../../i386-mingw32msvc/lib/libmingw32.a(pseudo-reloc.o)
                              /opt/xmingw/lib/gcc-lib/i386-mingw32msvc/3.3.1/../../../../i386-mingw32msvc/lib/dllcrt2.o (_pei386_runtime_relocator)
/opt/xmingw/lib/gcc-lib/i386-mingw32msvc/3.3.1/../../../../i386-mingw32msvc/lib/libmingw32.a(pseudo-reloc-list.o)
                              /opt/xmingw/lib/gcc-lib/i386-mingw32msvc/3.3.1/../../../../i386-mingw32msvc/lib/libmingw32.a(pseudo-reloc.o) (__RUNTIME_PSEUDO_RELOC_LIST_END__)
/opt/xmingw/lib/gcc-lib/i386-mingw32msvc/3.3.1/libgcc.a(w32-shared-ptr.o)
                              /opt/xmingw/lib/gcc-lib/i386-mingw32msvc/3.3.1/crtbegin.o (__w32_sharedptr_initialize)
/opt/xmingw/lib/gcc-lib/i386-mingw32msvc/3.3.1/libgcc.a(_chkstk.o)
                              parser.o (_alloca)
/opt/xmingw/lib/gcc-lib/i386-mingw32msvc/3.3.1/libgcc.a(_ctors.o)
                              /opt/xmingw/lib/gcc-lib/i386-mingw32msvc/3.3.1/../../../../i386-mingw32msvc/lib/libmingw32.a(gccmain.o) (__CTOR_LIST__)
/opt/xmingw/lib/gcc-lib/i386-mingw32msvc/3.3.1/../../../../i386-mingw32msvc/lib/libmingwex.a(pow.o)
                              node.o (pow)
/opt/xmingw/lib/gcc-lib/i386-mingw32msvc/3.3.1/../../../../i386-mingw32msvc/lib/libmingwex.a(fp_consts.o)
                              /opt/xmingw/lib/gcc-lib/i386-mingw32msvc/3.3.1/../../../../i386-mingw32msvc/lib/libmingwex.a(pow.o) (__QNAN)
/opt/xmingw/lib/gcc-lib/i386-mingw32msvc/3.3.1/../../../../i386-mingw32msvc/lib/libmingwex.a(powi.o)
                              /opt/xmingw/lib/gcc-lib/i386-mingw32msvc/3.3.1/../../../../i386-mingw32msvc/lib/libmingwex.a(pow.o) (__powi)
/opt/xmingw/lib/gcc-lib/i386-mingw32msvc/3.3.1/../../../../i386-mingw32msvc/lib/libmingwex.a(signbit.o)
                              /opt/xmingw/lib/gcc-lib/i386-mingw32msvc/3.3.1/../../../../i386-mingw32msvc/lib/libmingwex.a(pow.o) (__signbit)
/opt/xmingw/lib/gcc-lib/i386-mingw32msvc/3.3.1/../../../../i386-mingw32msvc/lib/libmingwex.a(fpclassify.o)
                              /opt/xmingw/lib/gcc-lib/i386-mingw32msvc/3.3.1/../../../../i386-mingw32msvc/lib/libmingwex.a(pow.o) (__fpclassify)
/opt/xmingw/lib/gcc-lib/i386-mingw32msvc/3.3.1/../../../../i386-mingw32msvc/lib/libmingwex.a(isnan.o)
                              /opt/xmingw/lib/gcc-lib/i386-mingw32msvc/3.3.1/../../../../i386-mingw32msvc/lib/libmingwex.a(pow.o) (__isnan)
/opt/xmingw/lib/gcc-lib/i386-mingw32msvc/3.3.1/../../../../i386-mingw32msvc/lib/libmsvcrt.a(dzncs00036.o)
                              /opt/xmingw/lib/gcc-lib/i386-mingw32msvc/3.3.1/../../../../i386-mingw32msvc/lib/dllcrt2.o (__dllonexit)
/opt/xmingw/lib/gcc-lib/i386-mingw32msvc/3.3.1/../../../../i386-mingw32msvc/lib/libmsvcrt.a(dzncs00537.o)
                              /opt/xmingw/lib/gcc-lib/i386-mingw32msvc/3.3.1/../../../../i386-mingw32msvc/lib/dllcrt2.o (fflush)
/opt/xmingw/lib/gcc-lib/i386-mingw32msvc/3.3.1/../../../../i386-mingw32msvc/lib/libmsvcrt.a(dzncs00552.o)
                              /opt/xmingw/lib/gcc-lib/i386-mingw32msvc/3.3.1/../../../../i386-mingw32msvc/lib/dllcrt2.o (free)
/opt/xmingw/lib/gcc-lib/i386-mingw32msvc/3.3.1/../../../../i386-mingw32msvc/lib/libmsvcrt.a(dzncs00147.o)
                              /opt/xmingw/lib/gcc-lib/i386-mingw32msvc/3.3.1/../../../../i386-mingw32msvc/lib/dllcrt2.o (_errno)
/opt/xmingw/lib/gcc-lib/i386-mingw32msvc/3.3.1/../../../../i386-mingw32msvc/lib/libmsvcrt.a(dzncs00603.o)
                              /opt/xmingw/lib/gcc-lib/i386-mingw32msvc/3.3.1/../../../../i386-mingw32msvc/lib/dllcrt2.o (malloc)
/opt/xmingw/lib/gcc-lib/i386-mingw32msvc/3.3.1/../../../../i386-mingw32msvc/lib/libmsvcrt.a(dzncs00640.o)
                              ui_win.o (strcat)
/opt/xmingw/lib/gcc-lib/i386-mingw32msvc/3.3.1/../../../../i386-mingw32msvc/lib/libmsvcrt.a(dzncs00636.o)
                              ui_win.o (sprintf)
/opt/xmingw/lib/gcc-lib/i386-mingw32msvc/3.3.1/../../../../i386-mingw32msvc/lib/libmsvcrt.a(dzncs00648.o)
                              ui.o (strlen)
/opt/xmingw/lib/gcc-lib/i386-mingw32msvc/3.3.1/../../../../i386-mingw32msvc/lib/libmsvcrt.a(dzncs00644.o)
                              ui_build.o (strcpy)
/opt/xmingw/lib/gcc-lib/i386-mingw32msvc/3.3.1/../../../../i386-mingw32msvc/lib/libmsvcrt.a(dzncs00611.o)
                              preview.o (memset)
/opt/xmingw/lib/gcc-lib/i386-mingw32msvc/3.3.1/../../../../i386-mingw32msvc/lib/libmsvcrt.a(dzncs00638.o)
                              preview.o (srand)
/opt/xmingw/lib/gcc-lib/i386-mingw32msvc/3.3.1/../../../../i386-mingw32msvc/lib/libmsvcrt.a(dzncs00609.o)
                              read.o (memcpy)
/opt/xmingw/lib/gcc-lib/i386-mingw32msvc/3.3.1/../../../../i386-mingw32msvc/lib/libmsvcrt.a(dzncs00519.o)
                              read.o (atoi)
/opt/xmingw/lib/gcc-lib/i386-mingw32msvc/3.3.1/../../../../i386-mingw32msvc/lib/libmsvcrt.a(dzncs00222.o)
                              lexer.o (_imp___iob)
/opt/xmingw/lib/gcc-lib/i386-mingw32msvc/3.3.1/../../../../i386-mingw32msvc/lib/libmsvcrt.a(dzncs00625.o)
                              lexer.o (realloc)
/opt/xmingw/lib/gcc-lib/i386-mingw32msvc/3.3.1/../../../../i386-mingw32msvc/lib/libmsvcrt.a(dzncs00531.o)
                              lexer.o (exit)
/opt/xmingw/lib/gcc-lib/i386-mingw32msvc/3.3.1/../../../../i386-mingw32msvc/lib/libmsvcrt.a(dzncs00546.o)
                              lexer.o (fprintf)
/opt/xmingw/lib/gcc-lib/i386-mingw32msvc/3.3.1/../../../../i386-mingw32msvc/lib/libmsvcrt.a(dzncs00670.o)
                              lexer.o (toupper)
/opt/xmingw/lib/gcc-lib/i386-mingw32msvc/3.3.1/../../../../i386-mingw32msvc/lib/libmsvcrt.a(dzncs00047.o)
                              node.o (_imp____mb_cur_max)
/opt/xmingw/lib/gcc-lib/i386-mingw32msvc/3.3.1/../../../../i386-mingw32msvc/lib/libmsvcrt.a(dzncs00344.o)
                              node.o (_imp___pctype)
/opt/xmingw/lib/gcc-lib/i386-mingw32msvc/3.3.1/../../../../i386-mingw32msvc/lib/libmsvcrt.a(dzncs00616.o)
                              node.o (printf)
/opt/xmingw/lib/gcc-lib/i386-mingw32msvc/3.3.1/../../../../i386-mingw32msvc/lib/libmsvcrt.a(dzncs00619.o)
                              node.o (puts)
/opt/xmingw/lib/gcc-lib/i386-mingw32msvc/3.3.1/../../../../i386-mingw32msvc/lib/libmsvcrt.a(dzncs00224.o)
                              node.o (_isctype)
/opt/xmingw/lib/gcc-lib/i386-mingw32msvc/3.3.1/../../../../i386-mingw32msvc/lib/libmsvcrt.a(dzncs00176.o)
                              node.o (_flsbuf)
/opt/xmingw/lib/gcc-lib/i386-mingw32msvc/3.3.1/../../../../i386-mingw32msvc/lib/libmsvcrt.a(dzncs00642.o)
                              symtab.o (strcmp)
/opt/xmingw/lib/gcc-lib/i386-mingw32msvc/3.3.1/../../../../i386-mingw32msvc/lib/libmsvcrt.a(dzncs00516.o)
                              funcs.o (atan2)
/opt/xmingw/lib/gcc-lib/i386-mingw32msvc/3.3.1/../../../../i386-mingw32msvc/lib/libmsvcrt.a(dzncs00634.o)
                              funcs.o (sin)
/opt/xmingw/lib/gcc-lib/i386-mingw32msvc/3.3.1/../../../../i386-mingw32msvc/lib/libmsvcrt.a(dzncs00526.o)
                              funcs.o (cos)
/opt/xmingw/lib/gcc-lib/i386-mingw32msvc/3.3.1/../../../../i386-mingw32msvc/lib/libmsvcrt.a(dzncs00624.o)
                              funcs.o (rand)
/opt/xmingw/lib/gcc-lib/i386-mingw32msvc/3.3.1/../../../../i386-mingw32msvc/lib/libmsvcrt.a(dzncs00395.o)
                              load_win.o (_stricmp)
/opt/xmingw/lib/gcc-lib/i386-mingw32msvc/3.3.1/../../../../i386-mingw32msvc/lib/libmsvcrt.a(dzncs00610.o)
                              ../common/tt/str.o (memmove)
/opt/xmingw/lib/gcc-lib/i386-mingw32msvc/3.3.1/../../../../i386-mingw32msvc/lib/libmsvcrt.a(dzncs00510.o)
                              /opt/xmingw/lib/gcc-lib/i386-mingw32msvc/3.3.1/libgcc.a(w32-shared-ptr.o) (abort)
/opt/xmingw/lib/gcc-lib/i386-mingw32msvc/3.3.1/../../../../i386-mingw32msvc/lib/libmsvcrt.a(dzncs00543.o)
                              /opt/xmingw/lib/gcc-lib/i386-mingw32msvc/3.3.1/../../../../i386-mingw32msvc/lib/libmingwex.a(pow.o) (floor)
/opt/xmingw/lib/gcc-lib/i386-mingw32msvc/3.3.1/../../../../i386-mingw32msvc/lib/libmsvcrt.a(dzncs00596.o)
                              /opt/xmingw/lib/gcc-lib/i386-mingw32msvc/3.3.1/../../../../i386-mingw32msvc/lib/libmingwex.a(pow.o) (ldexp)
/opt/xmingw/lib/gcc-lib/i386-mingw32msvc/3.3.1/../../../../i386-mingw32msvc/lib/libmsvcrt.a(dzncs00554.o)
                              /opt/xmingw/lib/gcc-lib/i386-mingw32msvc/3.3.1/../../../../i386-mingw32msvc/lib/libmingwex.a(pow.o) (frexp)
/opt/xmingw/lib/gcc-lib/i386-mingw32msvc/3.3.1/../../../../i386-mingw32msvc/lib/libmsvcrt.a(dznch.o)
                              /opt/xmingw/lib/gcc-lib/i386-mingw32msvc/3.3.1/../../../../i386-mingw32msvc/lib/libmsvcrt.a(dzncs00036.o) (_head_libmsvcrt_a)
/opt/xmingw/lib/gcc-lib/i386-mingw32msvc/3.3.1/../../../../i386-mingw32msvc/lib/libmsvcrt.a(dznct.o)
                              /opt/xmingw/lib/gcc-lib/i386-mingw32msvc/3.3.1/../../../../i386-mingw32msvc/lib/libmsvcrt.a(dznch.o) (_libmsvcrt_a_iname)
/opt/xmingw/lib/gcc-lib/i386-mingw32msvc/3.3.1/../../../../i386-mingw32msvc/lib/libgdi32.a(dihvbs00195.o)
                              ui_win.o (GetStockObject@4)
/opt/xmingw/lib/gcc-lib/i386-mingw32msvc/3.3.1/../../../../i386-mingw32msvc/lib/libgdi32.a(dihvbs00038.o)
                              ../common/tt/ui_compat_win.o (CreateDIBSection@24)
/opt/xmingw/lib/gcc-lib/i386-mingw32msvc/3.3.1/../../../../i386-mingw32msvc/lib/libgdi32.a(dihvbs00072.o)
                              ../common/tt/ui_compat_win.o (DeleteObject@4)
/opt/xmingw/lib/gcc-lib/i386-mingw32msvc/3.3.1/../../../../i386-mingw32msvc/lib/libgdi32.a(dihvbh.o)
                              /opt/xmingw/lib/gcc-lib/i386-mingw32msvc/3.3.1/../../../../i386-mingw32msvc/lib/libgdi32.a(dihvbs00195.o) (_head_libgdi32_a)
/opt/xmingw/lib/gcc-lib/i386-mingw32msvc/3.3.1/../../../../i386-mingw32msvc/lib/libgdi32.a(dihvbt.o)
                              /opt/xmingw/lib/gcc-lib/i386-mingw32msvc/3.3.1/../../../../i386-mingw32msvc/lib/libgdi32.a(dihvbh.o) (_libgdi32_a_iname)
/opt/xmingw/lib/gcc-lib/i386-mingw32msvc/3.3.1/../../../../i386-mingw32msvc/lib/libcomdlg32.a(dkfvbs00009.o)
                              ../common/tt/choosefile_win.o (GetOpenFileNameA@4)
/opt/xmingw/lib/gcc-lib/i386-mingw32msvc/3.3.1/../../../../i386-mingw32msvc/lib/libcomdlg32.a(dkfvbs00011.o)
                              ../common/tt/choosefile_win.o (GetSaveFileNameA@4)
/opt/xmingw/lib/gcc-lib/i386-mingw32msvc/3.3.1/../../../../i386-mingw32msvc/lib/libcomdlg32.a(dkfvbh.o)
                              /opt/xmingw/lib/gcc-lib/i386-mingw32msvc/3.3.1/../../../../i386-mingw32msvc/lib/libcomdlg32.a(dkfvbs00009.o) (_head_libcomdlg32_a)
/opt/xmingw/lib/gcc-lib/i386-mingw32msvc/3.3.1/../../../../i386-mingw32msvc/lib/libcomdlg32.a(dkfvbt.o)
                              /opt/xmingw/lib/gcc-lib/i386-mingw32msvc/3.3.1/../../../../i386-mingw32msvc/lib/libcomdlg32.a(dkfvbh.o) (_libcomdlg32_a_iname)
/opt/xmingw/lib/gcc-lib/i386-mingw32msvc/3.3.1/../../../../i386-mingw32msvc/lib/libuser32.a(dynvbs00429.o)
                              main.o (MessageBeep@4)
/opt/xmingw/lib/gcc-lib/i386-mingw32msvc/3.3.1/../../../../i386-mingw32msvc/lib/libuser32.a(dynvbs00430.o)
                              ui_win.o (MessageBoxA@16)
/opt/xmingw/lib/gcc-lib/i386-mingw32msvc/3.3.1/../../../../i386-mingw32msvc/lib/libuser32.a(dynvbs00252.o)
                              ui_win.o (GetDlgItem@8)
/opt/xmingw/lib/gcc-lib/i386-mingw32msvc/3.3.1/../../../../i386-mingw32msvc/lib/libuser32.a(dynvbs00235.o)
                              ui_win.o (GetClientRect@8)
/opt/xmingw/lib/gcc-lib/i386-mingw32msvc/3.3.1/../../../../i386-mingw32msvc/lib/libuser32.a(dynvbs00494.o)
                              ui_win.o (SendDlgItemMessageA@20)
/opt/xmingw/lib/gcc-lib/i386-mingw32msvc/3.3.1/../../../../i386-mingw32msvc/lib/libuser32.a(dynvbs00251.o)
                              ui_win.o (GetDlgCtrlID@4)
/opt/xmingw/lib/gcc-lib/i386-mingw32msvc/3.3.1/../../../../i386-mingw32msvc/lib/libuser32.a(dynvbs00482.o)
                              ui_win.o (ReleaseCapture@0)
/opt/xmingw/lib/gcc-lib/i386-mingw32msvc/3.3.1/../../../../i386-mingw32msvc/lib/libuser32.a(dynvbs00246.o)
                              ui_win.o (GetCursorPos@4)
/opt/xmingw/lib/gcc-lib/i386-mingw32msvc/3.3.1/../../../../i386-mingw32msvc/lib/libuser32.a(dynvbs00181.o)
                              ui_win.o (EndDialog@8)
/opt/xmingw/lib/gcc-lib/i386-mingw32msvc/3.3.1/../../../../i386-mingw32msvc/lib/libuser32.a(dynvbs00506.o)
                              ui_win.o (SetCapture@4)
/opt/xmingw/lib/gcc-lib/i386-mingw32msvc/3.3.1/../../../../i386-mingw32msvc/lib/libuser32.a(dynvbs00146.o)
                              ui_win.o (DialogBoxParamA@20)
/opt/xmingw/lib/gcc-lib/i386-mingw32msvc/3.3.1/../../../../i386-mingw32msvc/lib/libuser32.a(dynvbs00518.o)
                              ui.o (SetDlgItemInt@16)
/opt/xmingw/lib/gcc-lib/i386-mingw32msvc/3.3.1/../../../../i386-mingw32msvc/lib/libuser32.a(dynvbs00519.o)
                              ui.o (SetDlgItemTextA@12)
/opt/xmingw/lib/gcc-lib/i386-mingw32msvc/3.3.1/../../../../i386-mingw32msvc/lib/libuser32.a(dynvbs00522.o)
                              ui.o (SetFocus@4)
/opt/xmingw/lib/gcc-lib/i386-mingw32msvc/3.3.1/../../../../i386-mingw32msvc/lib/libuser32.a(dynvbs00254.o)
                              ui.o (GetDlgItemTextA@16)
/opt/xmingw/lib/gcc-lib/i386-mingw32msvc/3.3.1/../../../../i386-mingw32msvc/lib/libuser32.a(dynvbs00574.o)
                              ui.o (ShowWindow@8)
/opt/xmingw/lib/gcc-lib/i386-mingw32msvc/3.3.1/../../../../i386-mingw32msvc/lib/libuser32.a(dynvbs00253.o)
                              ui.o (GetDlgItemInt@16)
/opt/xmingw/lib/gcc-lib/i386-mingw32msvc/3.3.1/../../../../i386-mingw32msvc/lib/libuser32.a(dynvbs00179.o)
                              ui.o (EnableWindow@8)
/opt/xmingw/lib/gcc-lib/i386-mingw32msvc/3.3.1/../../../../i386-mingw32msvc/lib/libuser32.a(dynvbs00053.o)
                              ui_build.o (CheckDlgButton@12)
/opt/xmingw/lib/gcc-lib/i386-mingw32msvc/3.3.1/../../../../i386-mingw32msvc/lib/libuser32.a(dynvbs00383.o)
                              ui_build.o (IsDlgButtonChecked@8)
/opt/xmingw/lib/gcc-lib/i386-mingw32msvc/3.3.1/../../../../i386-mingw32msvc/lib/libuser32.a(dynvbs00247.o)
                              preview.o (GetDC@4)
/opt/xmingw/lib/gcc-lib/i386-mingw32msvc/3.3.1/../../../../i386-mingw32msvc/lib/libuser32.a(dynvbs00483.o)
                              preview.o (ReleaseDC@8)
/opt/xmingw/lib/gcc-lib/i386-mingw32msvc/3.3.1/../../../../i386-mingw32msvc/lib/libuser32.a(dynvbs00249.o)
                              ../common/tt/ui_compat_win.o (GetDesktopWindow@0)
/opt/xmingw/lib/gcc-lib/i386-mingw32msvc/3.3.1/../../../../i386-mingw32msvc/lib/libuser32.a(dynvbs00346.o)
                              ../common/tt/ui_compat_win.o (GetWindowRect@8)
/opt/xmingw/lib/gcc-lib/i386-mingw32msvc/3.3.1/../../../../i386-mingw32msvc/lib/libuser32.a(dynvbs00438.o)
                              ../common/tt/ui_compat_win.o (MoveWindow@24)
/opt/xmingw/lib/gcc-lib/i386-mingw32msvc/3.3.1/../../../../i386-mingw32msvc/lib/libuser32.a(dynvbh.o)
                              /opt/xmingw/lib/gcc-lib/i386-mingw32msvc/3.3.1/../../../../i386-mingw32msvc/lib/libuser32.a(dynvbs00429.o) (_head_libuser32_a)
/opt/xmingw/lib/gcc-lib/i386-mingw32msvc/3.3.1/../../../../i386-mingw32msvc/lib/libuser32.a(dynvbt.o)
                              /opt/xmingw/lib/gcc-lib/i386-mingw32msvc/3.3.1/../../../../i386-mingw32msvc/lib/libuser32.a(dynvbh.o) (_libuser32_a_iname)
/opt/xmingw/lib/gcc-lib/i386-mingw32msvc/3.3.1/../../../../i386-mingw32msvc/lib/libkernel32.a(dmivbs00421.o)
                              process.o (GetTickCount@0)
/opt/xmingw/lib/gcc-lib/i386-mingw32msvc/3.3.1/../../../../i386-mingw32msvc/lib/libkernel32.a(dmivbs00196.o)
                              load_win.o (FindResourceA@12)
/opt/xmingw/lib/gcc-lib/i386-mingw32msvc/3.3.1/../../../../i386-mingw32msvc/lib/libkernel32.a(dmivbs00527.o)
                              load_win.o (LoadResource@8)
/opt/xmingw/lib/gcc-lib/i386-mingw32msvc/3.3.1/../../../../i386-mingw32msvc/lib/libkernel32.a(dmivbs00541.o)
                              load_win.o (LockResource@4)
/opt/xmingw/lib/gcc-lib/i386-mingw32msvc/3.3.1/../../../../i386-mingw32msvc/lib/libkernel32.a(dmivbs00523.o)
                              load_win.o (LoadLibraryExA@12)
/opt/xmingw/lib/gcc-lib/i386-mingw32msvc/3.3.1/../../../../i386-mingw32msvc/lib/libkernel32.a(dmivbs00213.o)
                              load_win.o (FreeLibrary@4)
/opt/xmingw/lib/gcc-lib/i386-mingw32msvc/3.3.1/../../../../i386-mingw32msvc/lib/libkernel32.a(dmivbs00323.o)
                              make_win.o (GetLastError@0)
/opt/xmingw/lib/gcc-lib/i386-mingw32msvc/3.3.1/../../../../i386-mingw32msvc/lib/libkernel32.a(dmivbs00208.o)
                              make_win.o (FormatMessageA@28)
/opt/xmingw/lib/gcc-lib/i386-mingw32msvc/3.3.1/../../../../i386-mingw32msvc/lib/libkernel32.a(dmivbs00019.o)
                              make_win.o (BeginUpdateResourceA@8)
/opt/xmingw/lib/gcc-lib/i386-mingw32msvc/3.3.1/../../../../i386-mingw32msvc/lib/libkernel32.a(dmivbs00746.o)
                              make_win.o (SizeofResource@8)
/opt/xmingw/lib/gcc-lib/i386-mingw32msvc/3.3.1/../../../../i386-mingw32msvc/lib/libkernel32.a(dmivbs00776.o)
                              make_win.o (UpdateResourceA@24)
/opt/xmingw/lib/gcc-lib/i386-mingw32msvc/3.3.1/../../../../i386-mingw32msvc/lib/libkernel32.a(dmivbs00123.o)
                              make_win.o (EndUpdateResourceA@8)
/opt/xmingw/lib/gcc-lib/i386-mingw32msvc/3.3.1/../../../../i386-mingw32msvc/lib/libkernel32.a(dmivbs00333.o)
                              make_win.o (GetModuleFileNameA@12)
/opt/xmingw/lib/gcc-lib/i386-mingw32msvc/3.3.1/../../../../i386-mingw32msvc/lib/libkernel32.a(dmivbs00053.o)
                              make_win.o (CopyFileA@12)
/opt/xmingw/lib/gcc-lib/i386-mingw32msvc/3.3.1/../../../../i386-mingw32msvc/lib/libkernel32.a(dmivbs00038.o)
                              ../common/tt/file_compat_win.o (CloseHandle@4)
/opt/xmingw/lib/gcc-lib/i386-mingw32msvc/3.3.1/../../../../i386-mingw32msvc/lib/libkernel32.a(dmivbs00822.o)
                              ../common/tt/file_compat_win.o (WriteFile@20)
/opt/xmingw/lib/gcc-lib/i386-mingw32msvc/3.3.1/../../../../i386-mingw32msvc/lib/libkernel32.a(dmivbs00613.o)
                              ../common/tt/file_compat_win.o (ReadFile@20)
/opt/xmingw/lib/gcc-lib/i386-mingw32msvc/3.3.1/../../../../i386-mingw32msvc/lib/libkernel32.a(dmivbs00068.o)
                              ../common/tt/file_compat_win.o (CreateFileA@28)
/opt/xmingw/lib/gcc-lib/i386-mingw32msvc/3.3.1/../../../../i386-mingw32msvc/lib/libkernel32.a(dmivbs00108.o)
                              ../common/tt/file_compat_win.o (DeleteFileA@4)
/opt/xmingw/lib/gcc-lib/i386-mingw32msvc/3.3.1/../../../../i386-mingw32msvc/lib/libkernel32.a(dmivbs00699.o)
                              ../common/tt/file_compat_win.o (SetFilePointer@16)
/opt/xmingw/lib/gcc-lib/i386-mingw32msvc/3.3.1/../../../../i386-mingw32msvc/lib/libkernel32.a(dmivbs00311.o)
                              ../common/tt/file_compat_win.o (GetFileSize@8)
/opt/xmingw/lib/gcc-lib/i386-mingw32msvc/3.3.1/../../../../i386-mingw32msvc/lib/libkernel32.a(dmivbs00690.o)
                              ../common/tt/file_compat_win.o (SetEndOfFile@4)
/opt/xmingw/lib/gcc-lib/i386-mingw32msvc/3.3.1/../../../../i386-mingw32msvc/lib/libkernel32.a(dmivbs00431.o)
                              ../common/tt/compat_win.o (GetVersionExA@4)
/opt/xmingw/lib/gcc-lib/i386-mingw32msvc/3.3.1/../../../../i386-mingw32msvc/lib/libkernel32.a(dmivbs00175.o)
                              /opt/xmingw/lib/gcc-lib/i386-mingw32msvc/3.3.1/libgcc.a(w32-shared-ptr.o) (FindAtomA@4)
/opt/xmingw/lib/gcc-lib/i386-mingw32msvc/3.3.1/../../../../i386-mingw32msvc/lib/libkernel32.a(dmivbs00001.o)
                              /opt/xmingw/lib/gcc-lib/i386-mingw32msvc/3.3.1/libgcc.a(w32-shared-ptr.o) (AddAtomA@4)
/opt/xmingw/lib/gcc-lib/i386-mingw32msvc/3.3.1/../../../../i386-mingw32msvc/lib/libkernel32.a(dmivbs00220.o)
                              /opt/xmingw/lib/gcc-lib/i386-mingw32msvc/3.3.1/libgcc.a(w32-shared-ptr.o) (GetAtomNameA@12)
/opt/xmingw/lib/gcc-lib/i386-mingw32msvc/3.3.1/../../../../i386-mingw32msvc/lib/libkernel32.a(dmivbh.o)
                              /opt/xmingw/lib/gcc-lib/i386-mingw32msvc/3.3.1/../../../../i386-mingw32msvc/lib/libkernel32.a(dmivbs00421.o) (_head_libkernel32_a)
/opt/xmingw/lib/gcc-lib/i386-mingw32msvc/3.3.1/../../../../i386-mingw32msvc/lib/libkernel32.a(dmivbt.o)
                              /opt/xmingw/lib/gcc-lib/i386-mingw32msvc/3.3.1/../../../../i386-mingw32msvc/lib/libkernel32.a(dmivbh.o) (_libkernel32_a_iname)

Allocating common symbols
Common symbol       size              file

varused             0x400             node.o
__DTOR_LIST__       0x10              /opt/xmingw/lib/gcc-lib/i386-mingw32msvc/3.3.1/libgcc.a(_ctors.o)
__w32_sharedptr_terminate
                    0x10              /opt/xmingw/lib/gcc-lib/i386-mingw32msvc/3.3.1/libgcc.a(w32-shared-ptr.o)
ctls                0x20              ui_build.o
yychar              0x10              parser.o
map                 0x1000            main.o
preview_hwnd        0x10              ui_win.o
errstart            0x10              main.o
cell                0x400             main.o
preview_rect        0x10              preview.o
needinput           0x10              process.o
maps                0x10              ui_build.o
errstr              0x10              parser.o
zoomfactor          0x10              ui.o
inarglist           0x190             parser.o
hash_table          0x200             symtab.o
var                 0x400             node.o
srcradused          0x10              main.o
arglistptr          0x10              parser.o
gpb                 0x10              main.o
__w32_sharedptr     0x10              /opt/xmingw/lib/gcc-lib/i386-mingw32msvc/3.3.1/libgcc.a(w32-shared-ptr.o)
errpos              0x10              main.o
tokstart            0x10              lexer.o
err                 0x10              main.o
preview_handle      0x10              preview.o
node_list           0x10              node.o
yyleng              0x10              lexer.o
__CTOR_LIST__       0x10              /opt/xmingw/lib/gcc-lib/i386-mingw32msvc/3.3.1/libgcc.a(_ctors.o)
fitzoom             0x10              ui.o
preview_h           0x10              preview.o
gdata               0x10              main.o
parsetree           0x10              parser.o
yynerrs             0x10              parser.o
preview_w           0x10              preview.o
preview_pmap        0x40              preview.o
yylval              0x10              parser.o
tokpos              0x10              lexer.o
expr                0x10              main.o
__w32_sharedptr_unexpected
                    0x10              /opt/xmingw/lib/gcc-lib/i386-mingw32msvc/3.3.1/libgcc.a(w32-shared-ptr.o)
preview_scroll      0x10              preview.o
chunksize           0x10              main.o
preview_pmask       0x20              preview.o
nplanes             0x10              main.o
allocs              0x10              node.o
toprow              0x10              main.o
event_id            0x10              make.o
yytext              0x10              lexer.o
slider              0x20              main.o
tree                0x10              main.o

Memory Configuration

Name             Origin             Length             Attributes
*default*        0x00000000         0xffffffff

Linker script and memory map

                0x6d640000                __image_base__ = 0x6d640000
                0x00000001                __dll__ = 0x1
                0x00001000                __section_alignment__ = 0x1000
                0x00000200                __file_alignment__ = 0x200
                0x00000004                __major_os_version__ = 0x4
                0x00000000                __minor_os_version__ = 0x0
                0x00000001                __major_image_version__ = 0x1
                0x00000000                __minor_image_version__ = 0x0
                0x00000004                __major_subsystem_version__ = 0x4
                0x00000000                __minor_subsystem_version__ = 0x0
                0x00000002                __subsystem__ = 0x2
                0x00200000                __size_of_stack_reserve__ = 0x200000
                0x00001000                __size_of_stack_commit__ = 0x1000
                0x00100000                __size_of_heap_reserve__ = 0x100000
                0x00001000                __size_of_heap_commit__ = 0x1000
                0x00000000                __loader_flags__ = 0x0
LOAD /opt/xmingw/lib/gcc-lib/i386-mingw32msvc/3.3.1/../../../../i386-mingw32msvc/lib/dllcrt2.o
LOAD /opt/xmingw/lib/gcc-lib/i386-mingw32msvc/3.3.1/crtbegin.o
LOAD main.o
LOAD ui_win.o
LOAD ui.o
LOAD ui_build.o
LOAD ui_build_win.o
LOAD preview.o
LOAD read.o
LOAD save.o
LOAD parser.o
LOAD lexer.o
LOAD node.o
LOAD symtab.o
LOAD funcs.o
LOAD trigtab.o
LOAD process.o
LOAD load_win.o
LOAD make_win.o
LOAD make.o
LOAD scripting.o
LOAD ../common/tt/str.o
LOAD ../common/tt/sprintf_tiny.o
LOAD ../common/tt/ui_compat_win.o
LOAD ../common/tt/file_compat_win.o
LOAD ../common/tt/choosefile_win.o
LOAD ../common/tt/compat_string.o
LOAD ../common/tt/compat_win.o
LOAD ../common/tt/dbg_win.o
LOAD ../common/adobeplugin/dllmain.o
LOAD res.o
LOAD /opt/xmingw/lib/gcc-lib/i386-mingw32msvc/3.3.1/../../../../i386-mingw32msvc/lib/libmingw32.a
LOAD /opt/xmingw/lib/gcc-lib/i386-mingw32msvc/3.3.1/libgcc.a
LOAD /opt/xmingw/lib/gcc-lib/i386-mingw32msvc/3.3.1/../../../../i386-mingw32msvc/lib/libmoldname.a
LOAD /opt/xmingw/lib/gcc-lib/i386-mingw32msvc/3.3.1/../../../../i386-mingw32msvc/lib/libmingwex.a
LOAD /opt/xmingw/lib/gcc-lib/i386-mingw32msvc/3.3.1/../../../../i386-mingw32msvc/lib/libmsvcrt.a
LOAD /opt/xmingw/lib/gcc-lib/i386-mingw32msvc/3.3.1/../../../../i386-mingw32msvc/lib/libgdi32.a
LOAD /opt/xmingw/lib/gcc-lib/i386-mingw32msvc/3.3.1/../../../../i386-mingw32msvc/lib/libcomdlg32.a
LOAD /opt/xmingw/lib/gcc-lib/i386-mingw32msvc/3.3.1/../../../../i386-mingw32msvc/lib/libuser32.a
LOAD /opt/xmingw/lib/gcc-lib/i386-mingw32msvc/3.3.1/../../../../i386-mingw32msvc/lib/libkernel32.a
LOAD /opt/xmingw/lib/gcc-lib/i386-mingw32msvc/3.3.1/../../../../i386-mingw32msvc/lib/libadvapi32.a
LOAD /opt/xmingw/lib/gcc-lib/i386-mingw32msvc/3.3.1/../../../../i386-mingw32msvc/lib/libshell32.a
LOAD /opt/xmingw/lib/gcc-lib/i386-mingw32msvc/3.3.1/../../../../i386-mingw32msvc/lib/libmingw32.a
LOAD /opt/xmingw/lib/gcc-lib/i386-mingw32msvc/3.3.1/libgcc.a
LOAD /opt/xmingw/lib/gcc-lib/i386-mingw32msvc/3.3.1/../../../../i386-mingw32msvc/lib/libmoldname.a
LOAD /opt/xmingw/lib/gcc-lib/i386-mingw32msvc/3.3.1/../../../../i386-mingw32msvc/lib/libmingwex.a
LOAD /opt/xmingw/lib/gcc-lib/i386-mingw32msvc/3.3.1/../../../../i386-mingw32msvc/lib/libmsvcrt.a
LOAD /opt/xmingw/lib/gcc-lib/i386-mingw32msvc/3.3.1/crtend.o

.text           0x6d641000     0xd200
 *(.init)
 *(.text)
 .text          0x6d641000      0x160 /opt/xmingw/lib/gcc-lib/i386-mingw32msvc/3.3.1/../../../../i386-mingw32msvc/lib/dllcrt2.o
                0x6d641100                atexit
                0x6d641130                _onexit
                0x6d641000                DllMainCRTStartup@12
 .text          0x6d641160       0x10 /opt/xmingw/lib/gcc-lib/i386-mingw32msvc/3.3.1/crtbegin.o
                0x6d641160                __do_sjlj_init
 .text          0x6d641170      0x580 main.o
                0x6d641180                PluginMain
                0x6d641550                DoStart
                0x6d6414d0                RequestNext
                0x6d641340                checkandinitparams
                0x6d6415a0                DoContinue
                0x6d641690                DoFinish
                0x6d641480                DoPrepare
 .text          0x6d6416f0      0x760 ui_win.o
                0x6d641df0                maindialog
                0x6d6419d0                simplealert
                0x6d641a10                maindlgproc@16
                0x6d6418c0                DoAbout
 .text          0x6d641e50     0x1300 ui.o
                0x6d642390                checksl
                0x6d6426e0                maindlgupdate
                0x6d642930                maindlginit
                0x6d642140                updateexpr
                0x6d642060                updateglobals
                0x6d642cc0                maindlgitem
                0x6d6425a0                slidermoved
                0x6d6430c0                alertuser
                0x6d642610                slidertextchanged
                0x6d642270                updatezoom
                0x6d642510                checksliders
                0x6d641e70                updatedialog
 .text          0x6d643150      0x750 ui_build.o
                0x6d6435f0                builddlgitem
                0x6d643180                builddlginit
 .text          0x6d6438a0       0xd0 ui_build_win.o
                0x6d6438a0                builddlgproc@16
                0x6d643920                builddialog
 .text          0x6d643970      0xa20 preview.o
                0x6d643ad0                dispose_preview
                0x6d643970                setup_preview
                0x6d6441e0                drawpreview
                0x6d643b90                recalc_preview
 .text          0x6d644390      0x6a0 read.o
                0x6d6447a0                readPARM
                0x6d644980                readfile
                0x6d6444c0                readparams
                0x6d6448b0                readfileintohandle
 .text          0x6d644a30      0x500 save.o
                0x6d644d50                savehandleintofile
                0x6d644af0                saveparams
                0x6d644a30                putstr
                0x6d644e20                savefile
 .text          0x6d644f30     0x1cc0 parser.o
                0x6d644f60                pushflag
                0x6d646480                yyparse
                0x6d646b60                parseexpr
                0x6d646bd0                yyerror
 .text          0x6d646bf0     0x15a0 lexer.o
                0x6d647ec0                yy_create_buffer
                0x6d647e80                yy_load_buffer_state
                0x6d647e20                yy_switch_to_buffer
                0x6d647dd0                yyrestart
                0x6d647ff0                yy_scan_buffer
                0x6d647fa0                yy_flush_buffer
                0x6d6480b0                yy_scan_bytes
                0x6d647f10                yy_delete_buffer
                0x6d648080                yy_scan_string
                0x6d647f70                yy_init_buffer
                0x6d6472b0                yylex
 .text          0x6d648190      0xd20 node.o
                0x6d648190                newnode
                0x6d648dd0                freetree
                0x6d648480                eval
                0x6d6481d0                freenodes
                0x6d648210                freeallnodes
                0x6d648e20                checkvars
                0x6d6482e0                dumptree
 .text          0x6d648eb0      0x2a0 symtab.o
                0x6d648eb0                djb2
                0x6d649120                insert
                0x6d648f20                init_symtab
                0x6d6490c0                lookup
                0x6d649000                dump_symbols
 .text          0x6d649150      0x7d0 funcs.o
                0x6d649530                ff_sqr
                0x6d649300                ff_min
                0x6d649230                ff_ctl
                0x6d6494a0                ff_scl
                0x6d649450                ff_mix
                0x6d6493b0                ff_dif
                0x6d6495a0                ff_tan
                0x6d649740                ff_put
                0x6d649320                ff_max
                0x6d649700                ff_c2m
                0x6d649380                ff_sub
                0x6d649360                ff_add
                0x6d649760                ff_cnv
                0x6d6492a0                ff_map
                0x6d649150                ff_src
                0x6d6493d0                ff_rnd
                0x6d649550                ff_sin
                0x6d649250                ff_val
                0x6d6495e0                ff_r2x
                0x6d649340                ff_abs
                0x6d6496a0                ff_c2d
                0x6d6491d0                ff_rad
                0x6d649640                ff_r2y
                0x6d649720                ff_get
                0x6d6494f0                isqrt
                0x6d649560                ff_cos
 .text          0x6d649920      0x7a0 process.o
                0x6d649cd0                process
                0x6d649f00                process_scaled
                0x6d649920                setup
                0x6d649a70                evalpixel
 .text          0x6d64a0c0      0x280 load_win.o
                0x6d64a0d0                readPARMresource
                0x6d64a220                loadfile
 .text          0x6d64a340      0x6e0 make_win.o
                0x6d64a970                make_standalone
                0x6d64a470                doresources
                0x6d64a350                dbglasterror
 .text          0x6d64aa20      0x2e0 make.o
                0x6d64ac10                fixaete
                0x6d64aa20                printablehash
                0x6d64aad0                fixpipl
 .text          0x6d64ad00      0x5d0 scripting.o
                0x6d64ae50                ReadScriptParamsOnRead
                0x6d64b150                HostDescriptorAvailable
                0x6d64aff0                WriteScriptParamsOnRead
                0x6d64b270                HostCloseWriter
                0x6d64ad90                get_cstring
                0x6d64b220                HostCloseReader
                0x6d64ad00                put_cstring
 .text          0x6d64b2d0      0x270 ../common/tt/str.o
                0x6d64b440                my_strdup
                0x6d64b490                PLcstrcpy
                0x6d64b3e0                cat
                0x6d64b4e0                PLcstrcat
                0x6d64b410                my_memset
                0x6d64b390                myc2pstrcpy
                0x6d64b350                myp2cstrcpy
                0x6d64b2d0                myc2pstr
                0x6d64b310                myp2cstr
 .text          0x6d64b540      0x3e0 ../common/tt/sprintf_tiny.o
                0x6d64b720                vsprintf_tiny
                0x6d64b5e0                int_str
                0x6d64b540                int_exp
                0x6d64b8f0                sprintf_tiny
                0x6d64b590                udigits
                0x6d64b670                float_str
                0x6d64b620                int_strpad
 .text          0x6d64b920      0x230 ../common/tt/ui_compat_win.o
                0x6d64b940                newbitmap
                0x6d64ba40                disposebitmap
                0x6d64ba80                centre_window
 .text          0x6d64bb50      0x330 ../common/tt/file_compat_win.o
                0x6d64bd30                FSpDelete
                0x6d64bc30                FSpOpenDF
                0x6d64be30                SetEOF
                0x6d64be00                GetEOF
                0x6d64bdb0                SetFPos
                0x6d64bcb0                FSpCreate
                0x6d64bd70                GetFPos
                0x6d64bbd0                FSRead
                0x6d64bb80                FSWrite
                0x6d64bb50                FSClose
 .text          0x6d64be80      0x220 ../common/tt/choosefile_win.o
                0x6d64c090                completesave
                0x6d64be80                choosefiletypes
                0x6d64bfa0                putfile
                0x6d64bec0                choosefile
 .text          0x6d64c0a0      0x170 ../common/tt/compat_string.o
                0x6d64c160                PLstrcmp
                0x6d64c1d0                NumToString
                0x6d64c120                PLstrrchr
                0x6d64c0a0                PLstrcpy
                0x6d64c0d0                PLstrcat
 .text          0x6d64c210       0x50 ../common/tt/compat_win.o
                0x6d64c210                isWin32NT
 .text          0x6d64c260       0x40 ../common/tt/dbg_win.o
                0x6d64c270                dbg
 .text          0x6d64c2a0       0x20 ../common/adobeplugin/dllmain.o
                0x6d64c2a0                DllMain@12
 .text          0x6d64c2c0       0xb0 /opt/xmingw/lib/gcc-lib/i386-mingw32msvc/3.3.1/../../../../i386-mingw32msvc/lib/libmingw32.a(gccmain.o)
                0x6d64c350                __main
                0x6d64c2c0                __do_global_dtors
                0x6d64c2f0                __do_global_ctors
 .text          0x6d64c370       0x70 /opt/xmingw/lib/gcc-lib/i386-mingw32msvc/3.3.1/../../../../i386-mingw32msvc/lib/libmingw32.a(pseudo-reloc.o)
                0x6d64c3b0                _pei386_runtime_relocator
 .text          0x6d64c3e0      0x320 /opt/xmingw/lib/gcc-lib/i386-mingw32msvc/3.3.1/libgcc.a(w32-shared-ptr.o)
                0x6d64c4a0                __w32_sharedptr_initialize
 .text          0x6d64c700       0x30 /opt/xmingw/lib/gcc-lib/i386-mingw32msvc/3.3.1/libgcc.a(_chkstk.o)
                0x6d64c700                __chkstk
                0x6d64c700                _alloca
 .text          0x6d64c730      0xfc0 /opt/xmingw/lib/gcc-lib/i386-mingw32msvc/3.3.1/../../../../i386-mingw32msvc/lib/libmingwex.a(pow.o)
                0x6d64c940                pow
 .text          0x6d64d6f0       0x50 /opt/xmingw/lib/gcc-lib/i386-mingw32msvc/3.3.1/../../../../i386-mingw32msvc/lib/libmingwex.a(fp_consts.o)
                0x6d64d6f0                __QNAN
                0x6d64d730                nan
                0x6d64d700                __SNAN
                0x6d64d720                __DENORM
                0x6d64d710                __INF
 .text          0x6d64d740      0x300 /opt/xmingw/lib/gcc-lib/i386-mingw32msvc/3.3.1/../../../../i386-mingw32msvc/lib/libmingwex.a(powi.o)
                0x6d64d780                __powi
 .text          0x6d64da40       0x30 /opt/xmingw/lib/gcc-lib/i386-mingw32msvc/3.3.1/../../../../i386-mingw32msvc/lib/libmingwex.a(signbit.o)
                0x6d64da40                __signbit
                0x6d64da40                signbit
 .text          0x6d64da70       0x30 /opt/xmingw/lib/gcc-lib/i386-mingw32msvc/3.3.1/../../../../i386-mingw32msvc/lib/libmingwex.a(fpclassify.o)
                0x6d64da70                __fpclassify
 .text          0x6d64daa0       0x50 /opt/xmingw/lib/gcc-lib/i386-mingw32msvc/3.3.1/../../../../i386-mingw32msvc/lib/libmingwex.a(isnan.o)
                0x6d64daa0                isnan
                0x6d64daa0                __isnan
 .text          0x6d64daf0        0x8 /opt/xmingw/lib/gcc-lib/i386-mingw32msvc/3.3.1/../../../../i386-mingw32msvc/lib/libmsvcrt.a(dzncs00036.o)
                0x6d64daf0                __dllonexit
 *fill*         0x6d64daf8        0x8 00
 .text          0x6d64db00        0x8 /opt/xmingw/lib/gcc-lib/i386-mingw32msvc/3.3.1/../../../../i386-mingw32msvc/lib/libmsvcrt.a(dzncs00537.o)
                0x6d64db00                fflush
 *fill*         0x6d64db08        0x8 00
 .text          0x6d64db10        0x8 /opt/xmingw/lib/gcc-lib/i386-mingw32msvc/3.3.1/../../../../i386-mingw32msvc/lib/libmsvcrt.a(dzncs00552.o)
                0x6d64db10                free
 *fill*         0x6d64db18        0x8 00
 .text          0x6d64db20        0x8 /opt/xmingw/lib/gcc-lib/i386-mingw32msvc/3.3.1/../../../../i386-mingw32msvc/lib/libmsvcrt.a(dzncs00147.o)
                0x6d64db20                _errno
 *fill*         0x6d64db28        0x8 00
 .text          0x6d64db30        0x8 /opt/xmingw/lib/gcc-lib/i386-mingw32msvc/3.3.1/../../../../i386-mingw32msvc/lib/libmsvcrt.a(dzncs00603.o)
                0x6d64db30                malloc
 *fill*         0x6d64db38        0x8 00
 .text          0x6d64db40        0x8 /opt/xmingw/lib/gcc-lib/i386-mingw32msvc/3.3.1/../../../../i386-mingw32msvc/lib/libmsvcrt.a(dzncs00640.o)
                0x6d64db40                strcat
 *fill*         0x6d64db48        0x8 00
 .text          0x6d64db50        0x8 /opt/xmingw/lib/gcc-lib/i386-mingw32msvc/3.3.1/../../../../i386-mingw32msvc/lib/libmsvcrt.a(dzncs00636.o)
                0x6d64db50                sprintf
 *fill*         0x6d64db58        0x8 00
 .text          0x6d64db60        0x8 /opt/xmingw/lib/gcc-lib/i386-mingw32msvc/3.3.1/../../../../i386-mingw32msvc/lib/libmsvcrt.a(dzncs00648.o)
                0x6d64db60                strlen
 *fill*         0x6d64db68        0x8 00
 .text          0x6d64db70        0x8 /opt/xmingw/lib/gcc-lib/i386-mingw32msvc/3.3.1/../../../../i386-mingw32msvc/lib/libmsvcrt.a(dzncs00644.o)
                0x6d64db70                strcpy
 *fill*         0x6d64db78        0x8 00
 .text          0x6d64db80        0x8 /opt/xmingw/lib/gcc-lib/i386-mingw32msvc/3.3.1/../../../../i386-mingw32msvc/lib/libmsvcrt.a(dzncs00611.o)
                0x6d64db80                memset
 *fill*         0x6d64db88        0x8 00
 .text          0x6d64db90        0x8 /opt/xmingw/lib/gcc-lib/i386-mingw32msvc/3.3.1/../../../../i386-mingw32msvc/lib/libmsvcrt.a(dzncs00638.o)
                0x6d64db90                srand
 *fill*         0x6d64db98        0x8 00
 .text          0x6d64dba0        0x8 /opt/xmingw/lib/gcc-lib/i386-mingw32msvc/3.3.1/../../../../i386-mingw32msvc/lib/libmsvcrt.a(dzncs00609.o)
                0x6d64dba0                memcpy
 *fill*         0x6d64dba8        0x8 00
 .text          0x6d64dbb0        0x8 /opt/xmingw/lib/gcc-lib/i386-mingw32msvc/3.3.1/../../../../i386-mingw32msvc/lib/libmsvcrt.a(dzncs00519.o)
                0x6d64dbb0                atoi
 *fill*         0x6d64dbb8        0x8 00
 .text          0x6d64dbc0        0x8 /opt/xmingw/lib/gcc-lib/i386-mingw32msvc/3.3.1/../../../../i386-mingw32msvc/lib/libmsvcrt.a(dzncs00625.o)
                0x6d64dbc0                realloc
 *fill*         0x6d64dbc8        0x8 00
 .text          0x6d64dbd0        0x8 /opt/xmingw/lib/gcc-lib/i386-mingw32msvc/3.3.1/../../../../i386-mingw32msvc/lib/libmsvcrt.a(dzncs00531.o)
                0x6d64dbd0                exit
 *fill*         0x6d64dbd8        0x8 00
 .text          0x6d64dbe0        0x8 /opt/xmingw/lib/gcc-lib/i386-mingw32msvc/3.3.1/../../../../i386-mingw32msvc/lib/libmsvcrt.a(dzncs00546.o)
                0x6d64dbe0                fprintf
 *fill*         0x6d64dbe8        0x8 00
 .text          0x6d64dbf0        0x8 /opt/xmingw/lib/gcc-lib/i386-mingw32msvc/3.3.1/../../../../i386-mingw32msvc/lib/libmsvcrt.a(dzncs00670.o)
                0x6d64dbf0                toupper
 *fill*         0x6d64dbf8        0x8 00
 .text          0x6d64dc00        0x8 /opt/xmingw/lib/gcc-lib/i386-mingw32msvc/3.3.1/../../../../i386-mingw32msvc/lib/libmsvcrt.a(dzncs00616.o)
                0x6d64dc00                printf
 *fill*         0x6d64dc08        0x8 00
 .text          0x6d64dc10        0x8 /opt/xmingw/lib/gcc-lib/i386-mingw32msvc/3.3.1/../../../../i386-mingw32msvc/lib/libmsvcrt.a(dzncs00619.o)
                0x6d64dc10                puts
 *fill*         0x6d64dc18        0x8 00
 .text          0x6d64dc20        0x8 /opt/xmingw/lib/gcc-lib/i386-mingw32msvc/3.3.1/../../../../i386-mingw32msvc/lib/libmsvcrt.a(dzncs00224.o)
                0x6d64dc20                _isctype
 *fill*         0x6d64dc28        0x8 00
 .text          0x6d64dc30        0x8 /opt/xmingw/lib/gcc-lib/i386-mingw32msvc/3.3.1/../../../../i386-mingw32msvc/lib/libmsvcrt.a(dzncs00176.o)
                0x6d64dc30                _flsbuf
 *fill*         0x6d64dc38        0x8 00
 .text          0x6d64dc40        0x8 /opt/xmingw/lib/gcc-lib/i386-mingw32msvc/3.3.1/../../../../i386-mingw32msvc/lib/libmsvcrt.a(dzncs00642.o)
                0x6d64dc40                strcmp
 *fill*         0x6d64dc48        0x8 00
 .text          0x6d64dc50        0x8 /opt/xmingw/lib/gcc-lib/i386-mingw32msvc/3.3.1/../../../../i386-mingw32msvc/lib/libmsvcrt.a(dzncs00516.o)
                0x6d64dc50                atan2
 *fill*         0x6d64dc58        0x8 00
 .text          0x6d64dc60        0x8 /opt/xmingw/lib/gcc-lib/i386-mingw32msvc/3.3.1/../../../../i386-mingw32msvc/lib/libmsvcrt.a(dzncs00634.o)
                0x6d64dc60                sin
 *fill*         0x6d64dc68        0x8 00
 .text          0x6d64dc70        0x8 /opt/xmingw/lib/gcc-lib/i386-mingw32msvc/3.3.1/../../../../i386-mingw32msvc/lib/libmsvcrt.a(dzncs00526.o)
                0x6d64dc70                cos
 *fill*         0x6d64dc78        0x8 00
 .text          0x6d64dc80        0x8 /opt/xmingw/lib/gcc-lib/i386-mingw32msvc/3.3.1/../../../../i386-mingw32msvc/lib/libmsvcrt.a(dzncs00624.o)
                0x6d64dc80                rand
 *fill*         0x6d64dc88        0x8 00
 .text          0x6d64dc90        0x8 /opt/xmingw/lib/gcc-lib/i386-mingw32msvc/3.3.1/../../../../i386-mingw32msvc/lib/libmsvcrt.a(dzncs00395.o)
                0x6d64dc90                _stricmp
 *fill*         0x6d64dc98        0x8 00
 .text          0x6d64dca0        0x8 /opt/xmingw/lib/gcc-lib/i386-mingw32msvc/3.3.1/../../../../i386-mingw32msvc/lib/libmsvcrt.a(dzncs00610.o)
                0x6d64dca0                memmove
 *fill*         0x6d64dca8        0x8 00
 .text          0x6d64dcb0        0x8 /opt/xmingw/lib/gcc-lib/i386-mingw32msvc/3.3.1/../../../../i386-mingw32msvc/lib/libmsvcrt.a(dzncs00510.o)
                0x6d64dcb0                abort
 *fill*         0x6d64dcb8        0x8 00
 .text          0x6d64dcc0        0x8 /opt/xmingw/lib/gcc-lib/i386-mingw32msvc/3.3.1/../../../../i386-mingw32msvc/lib/libmsvcrt.a(dzncs00543.o)
                0x6d64dcc0                floor
 *fill*         0x6d64dcc8        0x8 00
 .text          0x6d64dcd0        0x8 /opt/xmingw/lib/gcc-lib/i386-mingw32msvc/3.3.1/../../../../i386-mingw32msvc/lib/libmsvcrt.a(dzncs00596.o)
                0x6d64dcd0                ldexp
 *fill*         0x6d64dcd8        0x8 00
 .text          0x6d64dce0        0x8 /opt/xmingw/lib/gcc-lib/i386-mingw32msvc/3.3.1/../../../../i386-mingw32msvc/lib/libmsvcrt.a(dzncs00554.o)
                0x6d64dce0                frexp
 *fill*         0x6d64dce8        0x8 00
 .text          0x6d64dcf0        0x8 /opt/xmingw/lib/gcc-lib/i386-mingw32msvc/3.3.1/../../../../i386-mingw32msvc/lib/libgdi32.a(dihvbs00195.o)
                0x6d64dcf0                GetStockObject@4
 *fill*         0x6d64dcf8        0x8 00
 .text          0x6d64dd00        0x8 /opt/xmingw/lib/gcc-lib/i386-mingw32msvc/3.3.1/../../../../i386-mingw32msvc/lib/libgdi32.a(dihvbs00038.o)
                0x6d64dd00                CreateDIBSection@24
 *fill*         0x6d64dd08        0x8 00
 .text          0x6d64dd10        0x8 /opt/xmingw/lib/gcc-lib/i386-mingw32msvc/3.3.1/../../../../i386-mingw32msvc/lib/libgdi32.a(dihvbs00072.o)
                0x6d64dd10                DeleteObject@4
 *fill*         0x6d64dd18        0x8 00
 .text          0x6d64dd20        0x8 /opt/xmingw/lib/gcc-lib/i386-mingw32msvc/3.3.1/../../../../i386-mingw32msvc/lib/libcomdlg32.a(dkfvbs00009.o)
                0x6d64dd20                GetOpenFileNameA@4
 *fill*         0x6d64dd28        0x8 00
 .text          0x6d64dd30        0x8 /opt/xmingw/lib/gcc-lib/i386-mingw32msvc/3.3.1/../../../../i386-mingw32msvc/lib/libcomdlg32.a(dkfvbs00011.o)
                0x6d64dd30                GetSaveFileNameA@4
 *fill*         0x6d64dd38        0x8 00
 .text          0x6d64dd40        0x8 /opt/xmingw/lib/gcc-lib/i386-mingw32msvc/3.3.1/../../../../i386-mingw32msvc/lib/libuser32.a(dynvbs00429.o)
                0x6d64dd40                MessageBeep@4
 *fill*         0x6d64dd48        0x8 00
 .text          0x6d64dd50        0x8 /opt/xmingw/lib/gcc-lib/i386-mingw32msvc/3.3.1/../../../../i386-mingw32msvc/lib/libuser32.a(dynvbs00430.o)
                0x6d64dd50                MessageBoxA@16
 *fill*         0x6d64dd58        0x8 00
 .text          0x6d64dd60        0x8 /opt/xmingw/lib/gcc-lib/i386-mingw32msvc/3.3.1/../../../../i386-mingw32msvc/lib/libuser32.a(dynvbs00252.o)
                0x6d64dd60                GetDlgItem@8
 *fill*         0x6d64dd68        0x8 00
 .text          0x6d64dd70        0x8 /opt/xmingw/lib/gcc-lib/i386-mingw32msvc/3.3.1/../../../../i386-mingw32msvc/lib/libuser32.a(dynvbs00235.o)
                0x6d64dd70                GetClientRect@8
 *fill*         0x6d64dd78        0x8 00
 .text          0x6d64dd80        0x8 /opt/xmingw/lib/gcc-lib/i386-mingw32msvc/3.3.1/../../../../i386-mingw32msvc/lib/libuser32.a(dynvbs00494.o)
                0x6d64dd80                SendDlgItemMessageA@20
 *fill*         0x6d64dd88        0x8 00
 .text          0x6d64dd90        0x8 /opt/xmingw/lib/gcc-lib/i386-mingw32msvc/3.3.1/../../../../i386-mingw32msvc/lib/libuser32.a(dynvbs00251.o)
                0x6d64dd90                GetDlgCtrlID@4
 *fill*         0x6d64dd98        0x8 00
 .text          0x6d64dda0        0x8 /opt/xmingw/lib/gcc-lib/i386-mingw32msvc/3.3.1/../../../../i386-mingw32msvc/lib/libuser32.a(dynvbs00482.o)
                0x6d64dda0                ReleaseCapture@0
 *fill*         0x6d64dda8        0x8 00
 .text          0x6d64ddb0        0x8 /opt/xmingw/lib/gcc-lib/i386-mingw32msvc/3.3.1/../../../../i386-mingw32msvc/lib/libuser32.a(dynvbs00246.o)
                0x6d64ddb0                GetCursorPos@4
 *fill*         0x6d64ddb8        0x8 00
 .text          0x6d64ddc0        0x8 /opt/xmingw/lib/gcc-lib/i386-mingw32msvc/3.3.1/../../../../i386-mingw32msvc/lib/libuser32.a(dynvbs00181.o)
                0x6d64ddc0                EndDialog@8
 *fill*         0x6d64ddc8        0x8 00
 .text          0x6d64ddd0        0x8 /opt/xmingw/lib/gcc-lib/i386-mingw32msvc/3.3.1/../../../../i386-mingw32msvc/lib/libuser32.a(dynvbs00506.o)
                0x6d64ddd0                SetCapture@4
 *fill*         0x6d64ddd8        0x8 00
 .text          0x6d64dde0        0x8 /opt/xmingw/lib/gcc-lib/i386-mingw32msvc/3.3.1/../../../../i386-mingw32msvc/lib/libuser32.a(dynvbs00146.o)
                0x6d64dde0                DialogBoxParamA@20
 *fill*         0x6d64dde8        0x8 00
 .text          0x6d64ddf0        0x8 /opt/xmingw/lib/gcc-lib/i386-mingw32msvc/3.3.1/../../../../i386-mingw32msvc/lib/libuser32.a(dynvbs00518.o)
                0x6d64ddf0                SetDlgItemInt@16
 *fill*         0x6d64ddf8        0x8 00
 .text          0x6d64de00        0x8 /opt/xmingw/lib/gcc-lib/i386-mingw32msvc/3.3.1/../../../../i386-mingw32msvc/lib/libuser32.a(dynvbs00519.o)
                0x6d64de00                SetDlgItemTextA@12
 *fill*         0x6d64de08        0x8 00
 .text          0x6d64de10        0x8 /opt/xmingw/lib/gcc-lib/i386-mingw32msvc/3.3.1/../../../../i386-mingw32msvc/lib/libuser32.a(dynvbs00522.o)
                0x6d64de10                SetFocus@4
 *fill*         0x6d64de18        0x8 00
 .text          0x6d64de20        0x8 /opt/xmingw/lib/gcc-lib/i386-mingw32msvc/3.3.1/../../../../i386-mingw32msvc/lib/libuser32.a(dynvbs00254.o)
                0x6d64de20                GetDlgItemTextA@16
 *fill*         0x6d64de28        0x8 00
 .text          0x6d64de30        0x8 /opt/xmingw/lib/gcc-lib/i386-mingw32msvc/3.3.1/../../../../i386-mingw32msvc/lib/libuser32.a(dynvbs00574.o)
                0x6d64de30                ShowWindow@8
 *fill*         0x6d64de38        0x8 00
 .text          0x6d64de40        0x8 /opt/xmingw/lib/gcc-lib/i386-mingw32msvc/3.3.1/../../../../i386-mingw32msvc/lib/libuser32.a(dynvbs00253.o)
                0x6d64de40                GetDlgItemInt@16
 *fill*         0x6d64de48        0x8 00
 .text          0x6d64de50        0x8 /opt/xmingw/lib/gcc-lib/i386-mingw32msvc/3.3.1/../../../../i386-mingw32msvc/lib/libuser32.a(dynvbs00179.o)
                0x6d64de50                EnableWindow@8
 *fill*         0x6d64de58        0x8 00
 .text          0x6d64de60        0x8 /opt/xmingw/lib/gcc-lib/i386-mingw32msvc/3.3.1/../../../../i386-mingw32msvc/lib/libuser32.a(dynvbs00053.o)
                0x6d64de60                CheckDlgButton@12
 *fill*         0x6d64de68        0x8 00
 .text          0x6d64de70        0x8 /opt/xmingw/lib/gcc-lib/i386-mingw32msvc/3.3.1/../../../../i386-mingw32msvc/lib/libuser32.a(dynvbs00383.o)
                0x6d64de70                IsDlgButtonChecked@8
 *fill*         0x6d64de78        0x8 00
 .text          0x6d64de80        0x8 /opt/xmingw/lib/gcc-lib/i386-mingw32msvc/3.3.1/../../../../i386-mingw32msvc/lib/libuser32.a(dynvbs00247.o)
                0x6d64de80                GetDC@4
 *fill*         0x6d64de88        0x8 00
 .text          0x6d64de90        0x8 /opt/xmingw/lib/gcc-lib/i386-mingw32msvc/3.3.1/../../../../i386-mingw32msvc/lib/libuser32.a(dynvbs00483.o)
                0x6d64de90                ReleaseDC@8
 *fill*         0x6d64de98        0x8 00
 .text          0x6d64dea0        0x8 /opt/xmingw/lib/gcc-lib/i386-mingw32msvc/3.3.1/../../../../i386-mingw32msvc/lib/libuser32.a(dynvbs00249.o)
                0x6d64dea0                GetDesktopWindow@0
 *fill*         0x6d64dea8        0x8 00
 .text          0x6d64deb0        0x8 /opt/xmingw/lib/gcc-lib/i386-mingw32msvc/3.3.1/../../../../i386-mingw32msvc/lib/libuser32.a(dynvbs00346.o)
                0x6d64deb0                GetWindowRect@8
 *fill*         0x6d64deb8        0x8 00
 .text          0x6d64dec0        0x8 /opt/xmingw/lib/gcc-lib/i386-mingw32msvc/3.3.1/../../../../i386-mingw32msvc/lib/libuser32.a(dynvbs00438.o)
                0x6d64dec0                MoveWindow@24
 *fill*         0x6d64dec8        0x8 00
 .text          0x6d64ded0        0x8 /opt/xmingw/lib/gcc-lib/i386-mingw32msvc/3.3.1/../../../../i386-mingw32msvc/lib/libkernel32.a(dmivbs00421.o)
                0x6d64ded0                GetTickCount@0
 *fill*         0x6d64ded8        0x8 00
 .text          0x6d64dee0        0x8 /opt/xmingw/lib/gcc-lib/i386-mingw32msvc/3.3.1/../../../../i386-mingw32msvc/lib/libkernel32.a(dmivbs00196.o)
                0x6d64dee0                FindResourceA@12
 *fill*         0x6d64dee8        0x8 00
 .text          0x6d64def0        0x8 /opt/xmingw/lib/gcc-lib/i386-mingw32msvc/3.3.1/../../../../i386-mingw32msvc/lib/libkernel32.a(dmivbs00527.o)
                0x6d64def0                LoadResource@8
 *fill*         0x6d64def8        0x8 00
 .text          0x6d64df00        0x8 /opt/xmingw/lib/gcc-lib/i386-mingw32msvc/3.3.1/../../../../i386-mingw32msvc/lib/libkernel32.a(dmivbs00541.o)
                0x6d64df00                LockResource@4
 *fill*         0x6d64df08        0x8 00
 .text          0x6d64df10        0x8 /opt/xmingw/lib/gcc-lib/i386-mingw32msvc/3.3.1/../../../../i386-mingw32msvc/lib/libkernel32.a(dmivbs00523.o)
                0x6d64df10                LoadLibraryExA@12
 *fill*         0x6d64df18        0x8 00
 .text          0x6d64df20        0x8 /opt/xmingw/lib/gcc-lib/i386-mingw32msvc/3.3.1/../../../../i386-mingw32msvc/lib/libkernel32.a(dmivbs00213.o)
                0x6d64df20                FreeLibrary@4
 *fill*         0x6d64df28        0x8 00
 .text          0x6d64df30        0x8 /opt/xmingw/lib/gcc-lib/i386-mingw32msvc/3.3.1/../../../../i386-mingw32msvc/lib/libkernel32.a(dmivbs00323.o)
                0x6d64df30                GetLastError@0
 *fill*         0x6d64df38        0x8 00
 .text          0x6d64df40        0x8 /opt/xmingw/lib/gcc-lib/i386-mingw32msvc/3.3.1/../../../../i386-mingw32msvc/lib/libkernel32.a(dmivbs00208.o)
                0x6d64df40                FormatMessageA@28
 *fill*         0x6d64df48        0x8 00
 .text          0x6d64df50        0x8 /opt/xmingw/lib/gcc-lib/i386-mingw32msvc/3.3.1/../../../../i386-mingw32msvc/lib/libkernel32.a(dmivbs00019.o)
                0x6d64df50                BeginUpdateResourceA@8
 *fill*         0x6d64df58        0x8 00
 .text          0x6d64df60        0x8 /opt/xmingw/lib/gcc-lib/i386-mingw32msvc/3.3.1/../../../../i386-mingw32msvc/lib/libkernel32.a(dmivbs00746.o)
                0x6d64df60                SizeofResource@8
 *fill*         0x6d64df68        0x8 00
 .text          0x6d64df70        0x8 /opt/xmingw/lib/gcc-lib/i386-mingw32msvc/3.3.1/../../../../i386-mingw32msvc/lib/libkernel32.a(dmivbs00776.o)
                0x6d64df70                UpdateResourceA@24
 *fill*         0x6d64df78        0x8 00
 .text          0x6d64df80        0x8 /opt/xmingw/lib/gcc-lib/i386-mingw32msvc/3.3.1/../../../../i386-mingw32msvc/lib/libkernel32.a(dmivbs00123.o)
                0x6d64df80                EndUpdateResourceA@8
 *fill*         0x6d64df88        0x8 00
 .text          0x6d64df90        0x8 /opt/xmingw/lib/gcc-lib/i386-mingw32msvc/3.3.1/../../../../i386-mingw32msvc/lib/libkernel32.a(dmivbs00333.o)
                0x6d64df90                GetModuleFileNameA@12
 *fill*         0x6d64df98        0x8 00
 .text          0x6d64dfa0        0x8 /opt/xmingw/lib/gcc-lib/i386-mingw32msvc/3.3.1/../../../../i386-mingw32msvc/lib/libkernel32.a(dmivbs00053.o)
                0x6d64dfa0                CopyFileA@12
 *fill*         0x6d64dfa8        0x8 00
 .text          0x6d64dfb0        0x8 /opt/xmingw/lib/gcc-lib/i386-mingw32msvc/3.3.1/../../../../i386-mingw32msvc/lib/libkernel32.a(dmivbs00038.o)
                0x6d64dfb0                CloseHandle@4
 *fill*         0x6d64dfb8        0x8 00
 .text          0x6d64dfc0        0x8 /opt/xmingw/lib/gcc-lib/i386-mingw32msvc/3.3.1/../../../../i386-mingw32msvc/lib/libkernel32.a(dmivbs00822.o)
                0x6d64dfc0                WriteFile@20
 *fill*         0x6d64dfc8        0x8 00
 .text          0x6d64dfd0        0x8 /opt/xmingw/lib/gcc-lib/i386-mingw32msvc/3.3.1/../../../../i386-mingw32msvc/lib/libkernel32.a(dmivbs00613.o)
                0x6d64dfd0                ReadFile@20
 *fill*         0x6d64dfd8        0x8 00
 .text          0x6d64dfe0        0x8 /opt/xmingw/lib/gcc-lib/i386-mingw32msvc/3.3.1/../../../../i386-mingw32msvc/lib/libkernel32.a(dmivbs00068.o)
                0x6d64dfe0                CreateFileA@28
 *fill*         0x6d64dfe8        0x8 00
 .text          0x6d64dff0        0x8 /opt/xmingw/lib/gcc-lib/i386-mingw32msvc/3.3.1/../../../../i386-mingw32msvc/lib/libkernel32.a(dmivbs00108.o)
                0x6d64dff0                DeleteFileA@4
 *fill*         0x6d64dff8        0x8 00
 .text          0x6d64e000        0x8 /opt/xmingw/lib/gcc-lib/i386-mingw32msvc/3.3.1/../../../../i386-mingw32msvc/lib/libkernel32.a(dmivbs00699.o)
                0x6d64e000                SetFilePointer@16
 *fill*         0x6d64e008        0x8 00
 .text          0x6d64e010        0x8 /opt/xmingw/lib/gcc-lib/i386-mingw32msvc/3.3.1/../../../../i386-mingw32msvc/lib/libkernel32.a(dmivbs00311.o)
                0x6d64e010                GetFileSize@8
 *fill*         0x6d64e018        0x8 00
 .text          0x6d64e020        0x8 /opt/xmingw/lib/gcc-lib/i386-mingw32msvc/3.3.1/../../../../i386-mingw32msvc/lib/libkernel32.a(dmivbs00690.o)
                0x6d64e020                SetEndOfFile@4
 *fill*         0x6d64e028        0x8 00
 .text          0x6d64e030        0x8 /opt/xmingw/lib/gcc-lib/i386-mingw32msvc/3.3.1/../../../../i386-mingw32msvc/lib/libkernel32.a(dmivbs00431.o)
                0x6d64e030                GetVersionExA@4
 *fill*         0x6d64e038        0x8 00
 .text          0x6d64e040        0x8 /opt/xmingw/lib/gcc-lib/i386-mingw32msvc/3.3.1/../../../../i386-mingw32msvc/lib/libkernel32.a(dmivbs00175.o)
                0x6d64e040                FindAtomA@4
 *fill*         0x6d64e048        0x8 00
 .text          0x6d64e050        0x8 /opt/xmingw/lib/gcc-lib/i386-mingw32msvc/3.3.1/../../../../i386-mingw32msvc/lib/libkernel32.a(dmivbs00001.o)
                0x6d64e050                AddAtomA@4
 *fill*         0x6d64e058        0x8 00
 .text          0x6d64e060        0x8 /opt/xmingw/lib/gcc-lib/i386-mingw32msvc/3.3.1/../../../../i386-mingw32msvc/lib/libkernel32.a(dmivbs00220.o)
                0x6d64e060                GetAtomNameA@12
 *fill*         0x6d64e068        0x8 00
 .text          0x6d64e070       0x10 /opt/xmingw/lib/gcc-lib/i386-mingw32msvc/3.3.1/crtend.o
 *(SORT(.text$*))
 *(.glue_7t)
 *(.glue_7)
                0x6d64e080                ___CTOR_LIST__ = .
                0x6d64e080                __CTOR_LIST__ = .
                0x6d64e080        0x4 LONG 0xffffffff
 *(SORT(.ctors.*))
 *(.ctors)
 .ctors         0x6d64e084        0x4 /opt/xmingw/lib/gcc-lib/i386-mingw32msvc/3.3.1/crtend.o
 *(.ctor)
                0x6d64e088        0x4 LONG 0x0
                0x6d64e08c                ___DTOR_LIST__ = .
                0x6d64e08c                __DTOR_LIST__ = .
                0x6d64e08c        0x4 LONG 0xffffffff
 *(SORT(.dtors.*))
 *(.dtors)
 *(.dtor)
                0x6d64e090        0x4 LONG 0x0
 *(.fini)
 *(.gcc_exc)
                0x6d64e094                PROVIDE (etext, .)
 *(.gcc_except_table)

.data           0x6d64f000     0x1c00
                0x6d64f000                __data_start__ = .
 *(.data)
 .data          0x6d64f000       0x10 main.o
                0x6d64f000                defaultexpr
 .data          0x6d64f010       0x80 ui.o
                0x6d64f010                doupdates
 .data          0x6d64f090       0x10 save.o
 .data          0x6d64f0a0       0x10 lexer.o
 .data          0x6d64f0b0      0x240 funcs.o
                0x6d64f0b0                predefs
 .data          0x6d64f2f0     0x1800 trigtab.o
                0x6d64f2f0                costab
                0x6d6502f0                tantab
 .data          0x6d650af0       0x20 ../common/tt/file_compat_win.o
 .data          0x6d650b10       0x10 /opt/xmingw/lib/gcc-lib/i386-mingw32msvc/3.3.1/../../../../i386-mingw32msvc/lib/libmingw32.a(gccmain.o)
 .data          0x6d650b20       0x10 /opt/xmingw/lib/gcc-lib/i386-mingw32msvc/3.3.1/libgcc.a(w32-shared-ptr.o)
 *(.data2)
 *(SORT(.data$*))
                0x6d650b30                __data_end__ = .
 *(.data_cygwin_nocopy)

.rdata          0x6d651000        0x0
 *(.rdata)
 *(SORT(.rdata$*))
 *(.eh_frame)
                0x6d651000                ___RUNTIME_PSEUDO_RELOC_LIST__ = .
                0x6d651000                __RUNTIME_PSEUDO_RELOC_LIST__ = .
 *(.rdata_runtime_pseudo_reloc)
                0x6d651000                ___RUNTIME_PSEUDO_RELOC_LIST_END__ = .
                0x6d651000                __RUNTIME_PSEUDO_RELOC_LIST_END__ = .

.pdata
 *(.pdata)

.bss            0x6d651000     0x2420
                0x6d651000                __bss_start__ = .
 *(.bss)
 .bss           0x6d651000       0x20 /opt/xmingw/lib/gcc-lib/i386-mingw32msvc/3.3.1/../../../../i386-mingw32msvc/lib/dllcrt2.o
 .bss           0x6d651020       0x10 main.o
 .bss           0x6d651030       0x50 ui_win.o
 .bss           0x6d651080       0x10 preview.o
                0x6d651080                preview_complete
 .bss           0x6d651090       0x90 lexer.o
                0x6d651090                yyin
                0x6d651094                yyout
 .bss           0x6d651120       0x10 funcs.o
                0x6d651120                zero_val
 .bss           0x6d651130       0x10 ../common/adobeplugin/dllmain.o
                0x6d651130                hDllInstance
 .bss           0x6d651140       0x10 /opt/xmingw/lib/gcc-lib/i386-mingw32msvc/3.3.1/../../../../i386-mingw32msvc/lib/libmingw32.a(gccmain.o)
 .bss           0x6d651150       0x10 /opt/xmingw/lib/gcc-lib/i386-mingw32msvc/3.3.1/../../../../i386-mingw32msvc/lib/libmingw32.a(pseudo-reloc-list.o)
 .bss           0x6d651160       0x20 /opt/xmingw/lib/gcc-lib/i386-mingw32msvc/3.3.1/libgcc.a(w32-shared-ptr.o)
 *(COMMON)
 COMMON         0x6d651180     0x14d0 main.o
                                  0x0 (size before relaxing)
                0x6d651180                map
                0x6d652180                errstart
                0x6d652190                cell
                0x6d652590                srcradused
                0x6d6525a0                gpb
                0x6d6525b0                errpos
                0x6d6525c0                err
                0x6d6525d0                gdata
                0x6d6525e0                expr
                0x6d6525f0                chunksize
                0x6d652600                nplanes
                0x6d652610                toprow
                0x6d652620                slider
                0x6d652640                tree
 COMMON         0x6d652650       0x10 ui_win.o
                                  0x0 (size before relaxing)
                0x6d652650                preview_hwnd
 COMMON         0x6d652660       0x20 ui.o
                                  0x0 (size before relaxing)
                0x6d652660                zoomfactor
                0x6d652670                fitzoom
 COMMON         0x6d652680       0x30 ui_build.o
                                  0x0 (size before relaxing)
                0x6d652680                ctls
                0x6d6526a0                maps
 COMMON         0x6d6526b0       0xb0 preview.o
                                  0x0 (size before relaxing)
                0x6d6526b0                preview_rect
                0x6d6526c0                preview_handle
                0x6d6526d0                preview_h
                0x6d6526e0                preview_w
                0x6d6526f0                preview_pmap
                0x6d652730                preview_scroll
                0x6d652740                preview_pmask
 COMMON         0x6d652760      0x1f0 parser.o
                                  0x0 (size before relaxing)
                0x6d652760                yychar
                0x6d652770                errstr
                0x6d652780                inarglist
                0x6d652910                arglistptr
                0x6d652920                parsetree
                0x6d652930                yynerrs
                0x6d652940                yylval
 COMMON         0x6d652950       0x40 lexer.o
                                  0x0 (size before relaxing)
                0x6d652950                tokstart
                0x6d652960                yyleng
                0x6d652970                tokpos
                0x6d652980                yytext
 COMMON         0x6d652990      0x820 node.o
                                  0x0 (size before relaxing)
                0x6d652990                varused
                0x6d652d90                var
                0x6d653190                node_list
                0x6d6531a0                allocs
 COMMON         0x6d6531b0      0x200 symtab.o
                                  0x0 (size before relaxing)
                0x6d6531b0                hash_table
 COMMON         0x6d6533b0       0x10 process.o
                                  0x0 (size before relaxing)
                0x6d6533b0                needinput
 COMMON         0x6d6533c0       0x10 make.o
                                  0x0 (size before relaxing)
                0x6d6533c0                event_id
 COMMON         0x6d6533d0       0x30 /opt/xmingw/lib/gcc-lib/i386-mingw32msvc/3.3.1/libgcc.a(w32-shared-ptr.o)
                                  0x0 (size before relaxing)
                0x6d6533d0                __w32_sharedptr_terminate
                0x6d6533e0                __w32_sharedptr
                0x6d6533f0                __w32_sharedptr_unexpected
 COMMON         0x6d653400       0x20 /opt/xmingw/lib/gcc-lib/i386-mingw32msvc/3.3.1/libgcc.a(_ctors.o)
                                  0x0 (size before relaxing)
                0x6d653420                __bss_end__ = .

.edata          0x6d654000      0x200
 *(.edata)
 .edata         0x6d654000       0x4f dll stuff

/DISCARD/
 *(.debug$S)
 *(.debug$T)
 *(.debug$F)
 *(.drectve)

.idata          0x6d655000      0xc00
 SORT(*)(.idata$2)
 .idata$2       0x6d655000       0x14 /opt/xmingw/lib/gcc-lib/i386-mingw32msvc/3.3.1/../../../../i386-mingw32msvc/lib/libcomdlg32.a(dkfvbh.o)
                0x6d655000                _head_libcomdlg32_a
 .idata$2       0x6d655014       0x14 /opt/xmingw/lib/gcc-lib/i386-mingw32msvc/3.3.1/../../../../i386-mingw32msvc/lib/libgdi32.a(dihvbh.o)
                0x6d655014                _head_libgdi32_a
 .idata$2       0x6d655028       0x14 /opt/xmingw/lib/gcc-lib/i386-mingw32msvc/3.3.1/../../../../i386-mingw32msvc/lib/libkernel32.a(dmivbh.o)
                0x6d655028                _head_libkernel32_a
 .idata$2       0x6d65503c       0x14 /opt/xmingw/lib/gcc-lib/i386-mingw32msvc/3.3.1/../../../../i386-mingw32msvc/lib/libmsvcrt.a(dznch.o)
                0x6d65503c                _head_libmsvcrt_a
 .idata$2       0x6d655050       0x14 /opt/xmingw/lib/gcc-lib/i386-mingw32msvc/3.3.1/../../../../i386-mingw32msvc/lib/libuser32.a(dynvbh.o)
                0x6d655050                _head_libuser32_a
 SORT(*)(.idata$3)
                0x6d655064        0x4 LONG 0x0
                0x6d655068        0x4 LONG 0x0
                0x6d65506c        0x4 LONG 0x0
                0x6d655070        0x4 LONG 0x0
                0x6d655074        0x4 LONG 0x0
 SORT(*)(.idata$4)
 .idata$4       0x6d655078        0x4 /opt/xmingw/lib/gcc-lib/i386-mingw32msvc/3.3.1/../../../../i386-mingw32msvc/lib/libcomdlg32.a(dkfvbh.o)
 .idata$4       0x6d65507c        0x4 /opt/xmingw/lib/gcc-lib/i386-mingw32msvc/3.3.1/../../../../i386-mingw32msvc/lib/libcomdlg32.a(dkfvbs00009.o)
 .idata$4       0x6d655080        0x4 /opt/xmingw/lib/gcc-lib/i386-mingw32msvc/3.3.1/../../../../i386-mingw32msvc/lib/libcomdlg32.a(dkfvbs00011.o)
 .idata$4       0x6d655084        0x4 /opt/xmingw/lib/gcc-lib/i386-mingw32msvc/3.3.1/../../../../i386-mingw32msvc/lib/libcomdlg32.a(dkfvbt.o)
 .idata$4       0x6d655088        0x4 /opt/xmingw/lib/gcc-lib/i386-mingw32msvc/3.3.1/../../../../i386-mingw32msvc/lib/libgdi32.a(dihvbh.o)
 .idata$4       0x6d65508c        0x4 /opt/xmingw/lib/gcc-lib/i386-mingw32msvc/3.3.1/../../../../i386-mingw32msvc/lib/libgdi32.a(dihvbs00038.o)
 .idata$4       0x6d655090        0x4 /opt/xmingw/lib/gcc-lib/i386-mingw32msvc/3.3.1/../../../../i386-mingw32msvc/lib/libgdi32.a(dihvbs00072.o)
 .idata$4       0x6d655094        0x4 /opt/xmingw/lib/gcc-lib/i386-mingw32msvc/3.3.1/../../../../i386-mingw32msvc/lib/libgdi32.a(dihvbs00195.o)
 .idata$4       0x6d655098        0x4 /opt/xmingw/lib/gcc-lib/i386-mingw32msvc/3.3.1/../../../../i386-mingw32msvc/lib/libgdi32.a(dihvbt.o)
 .idata$4       0x6d65509c        0x4 /opt/xmingw/lib/gcc-lib/i386-mingw32msvc/3.3.1/../../../../i386-mingw32msvc/lib/libkernel32.a(dmivbh.o)
 .idata$4       0x6d6550a0        0x4 /opt/xmingw/lib/gcc-lib/i386-mingw32msvc/3.3.1/../../../../i386-mingw32msvc/lib/libkernel32.a(dmivbs00001.o)
 .idata$4       0x6d6550a4        0x4 /opt/xmingw/lib/gcc-lib/i386-mingw32msvc/3.3.1/../../../../i386-mingw32msvc/lib/libkernel32.a(dmivbs00019.o)
 .idata$4       0x6d6550a8        0x4 /opt/xmingw/lib/gcc-lib/i386-mingw32msvc/3.3.1/../../../../i386-mingw32msvc/lib/libkernel32.a(dmivbs00038.o)
 .idata$4       0x6d6550ac        0x4 /opt/xmingw/lib/gcc-lib/i386-mingw32msvc/3.3.1/../../../../i386-mingw32msvc/lib/libkernel32.a(dmivbs00053.o)
 .idata$4       0x6d6550b0        0x4 /opt/xmingw/lib/gcc-lib/i386-mingw32msvc/3.3.1/../../../../i386-mingw32msvc/lib/libkernel32.a(dmivbs00068.o)
 .idata$4       0x6d6550b4        0x4 /opt/xmingw/lib/gcc-lib/i386-mingw32msvc/3.3.1/../../../../i386-mingw32msvc/lib/libkernel32.a(dmivbs00108.o)
 .idata$4       0x6d6550b8        0x4 /opt/xmingw/lib/gcc-lib/i386-mingw32msvc/3.3.1/../../../../i386-mingw32msvc/lib/libkernel32.a(dmivbs00123.o)
 .idata$4       0x6d6550bc        0x4 /opt/xmingw/lib/gcc-lib/i386-mingw32msvc/3.3.1/../../../../i386-mingw32msvc/lib/libkernel32.a(dmivbs00175.o)
 .idata$4       0x6d6550c0        0x4 /opt/xmingw/lib/gcc-lib/i386-mingw32msvc/3.3.1/../../../../i386-mingw32msvc/lib/libkernel32.a(dmivbs00196.o)
 .idata$4       0x6d6550c4        0x4 /opt/xmingw/lib/gcc-lib/i386-mingw32msvc/3.3.1/../../../../i386-mingw32msvc/lib/libkernel32.a(dmivbs00208.o)
 .idata$4       0x6d6550c8        0x4 /opt/xmingw/lib/gcc-lib/i386-mingw32msvc/3.3.1/../../../../i386-mingw32msvc/lib/libkernel32.a(dmivbs00213.o)
 .idata$4       0x6d6550cc        0x4 /opt/xmingw/lib/gcc-lib/i386-mingw32msvc/3.3.1/../../../../i386-mingw32msvc/lib/libkernel32.a(dmivbs00220.o)
 .idata$4       0x6d6550d0        0x4 /opt/xmingw/lib/gcc-lib/i386-mingw32msvc/3.3.1/../../../../i386-mingw32msvc/lib/libkernel32.a(dmivbs00311.o)
 .idata$4       0x6d6550d4        0x4 /opt/xmingw/lib/gcc-lib/i386-mingw32msvc/3.3.1/../../../../i386-mingw32msvc/lib/libkernel32.a(dmivbs00323.o)
 .idata$4       0x6d6550d8        0x4 /opt/xmingw/lib/gcc-lib/i386-mingw32msvc/3.3.1/../../../../i386-mingw32msvc/lib/libkernel32.a(dmivbs00333.o)
 .idata$4       0x6d6550dc        0x4 /opt/xmingw/lib/gcc-lib/i386-mingw32msvc/3.3.1/../../../../i386-mingw32msvc/lib/libkernel32.a(dmivbs00421.o)
 .idata$4       0x6d6550e0        0x4 /opt/xmingw/lib/gcc-lib/i386-mingw32msvc/3.3.1/../../../../i386-mingw32msvc/lib/libkernel32.a(dmivbs00431.o)
 .idata$4       0x6d6550e4        0x4 /opt/xmingw/lib/gcc-lib/i386-mingw32msvc/3.3.1/../../../../i386-mingw32msvc/lib/libkernel32.a(dmivbs00523.o)
 .idata$4       0x6d6550e8        0x4 /opt/xmingw/lib/gcc-lib/i386-mingw32msvc/3.3.1/../../../../i386-mingw32msvc/lib/libkernel32.a(dmivbs00527.o)
 .idata$4       0x6d6550ec        0x4 /opt/xmingw/lib/gcc-lib/i386-mingw32msvc/3.3.1/../../../../i386-mingw32msvc/lib/libkernel32.a(dmivbs00541.o)
 .idata$4       0x6d6550f0        0x4 /opt/xmingw/lib/gcc-lib/i386-mingw32msvc/3.3.1/../../../../i386-mingw32msvc/lib/libkernel32.a(dmivbs00613.o)
 .idata$4       0x6d6550f4        0x4 /opt/xmingw/lib/gcc-lib/i386-mingw32msvc/3.3.1/../../../../i386-mingw32msvc/lib/libkernel32.a(dmivbs00690.o)
 .idata$4       0x6d6550f8        0x4 /opt/xmingw/lib/gcc-lib/i386-mingw32msvc/3.3.1/../../../../i386-mingw32msvc/lib/libkernel32.a(dmivbs00699.o)
 .idata$4       0x6d6550fc        0x4 /opt/xmingw/lib/gcc-lib/i386-mingw32msvc/3.3.1/../../../../i386-mingw32msvc/lib/libkernel32.a(dmivbs00746.o)
 .idata$4       0x6d655100        0x4 /opt/xmingw/lib/gcc-lib/i386-mingw32msvc/3.3.1/../../../../i386-mingw32msvc/lib/libkernel32.a(dmivbs00776.o)
 .idata$4       0x6d655104        0x4 /opt/xmingw/lib/gcc-lib/i386-mingw32msvc/3.3.1/../../../../i386-mingw32msvc/lib/libkernel32.a(dmivbs00822.o)
 .idata$4       0x6d655108        0x4 /opt/xmingw/lib/gcc-lib/i386-mingw32msvc/3.3.1/../../../../i386-mingw32msvc/lib/libkernel32.a(dmivbt.o)
 .idata$4       0x6d65510c        0x4 /opt/xmingw/lib/gcc-lib/i386-mingw32msvc/3.3.1/../../../../i386-mingw32msvc/lib/libmsvcrt.a(dznch.o)
 .idata$4       0x6d655110        0x4 /opt/xmingw/lib/gcc-lib/i386-mingw32msvc/3.3.1/../../../../i386-mingw32msvc/lib/libmsvcrt.a(dzncs00036.o)
 .idata$4       0x6d655114        0x4 /opt/xmingw/lib/gcc-lib/i386-mingw32msvc/3.3.1/../../../../i386-mingw32msvc/lib/libmsvcrt.a(dzncs00047.o)
 .idata$4       0x6d655118        0x4 /opt/xmingw/lib/gcc-lib/i386-mingw32msvc/3.3.1/../../../../i386-mingw32msvc/lib/libmsvcrt.a(dzncs00147.o)
 .idata$4       0x6d65511c        0x4 /opt/xmingw/lib/gcc-lib/i386-mingw32msvc/3.3.1/../../../../i386-mingw32msvc/lib/libmsvcrt.a(dzncs00176.o)
 .idata$4       0x6d655120        0x4 /opt/xmingw/lib/gcc-lib/i386-mingw32msvc/3.3.1/../../../../i386-mingw32msvc/lib/libmsvcrt.a(dzncs00222.o)
 .idata$4       0x6d655124        0x4 /opt/xmingw/lib/gcc-lib/i386-mingw32msvc/3.3.1/../../../../i386-mingw32msvc/lib/libmsvcrt.a(dzncs00224.o)
 .idata$4       0x6d655128        0x4 /opt/xmingw/lib/gcc-lib/i386-mingw32msvc/3.3.1/../../../../i386-mingw32msvc/lib/libmsvcrt.a(dzncs00344.o)
 .idata$4       0x6d65512c        0x4 /opt/xmingw/lib/gcc-lib/i386-mingw32msvc/3.3.1/../../../../i386-mingw32msvc/lib/libmsvcrt.a(dzncs00395.o)
 .idata$4       0x6d655130        0x4 /opt/xmingw/lib/gcc-lib/i386-mingw32msvc/3.3.1/../../../../i386-mingw32msvc/lib/libmsvcrt.a(dzncs00510.o)
 .idata$4       0x6d655134        0x4 /opt/xmingw/lib/gcc-lib/i386-mingw32msvc/3.3.1/../../../../i386-mingw32msvc/lib/libmsvcrt.a(dzncs00516.o)
 .idata$4       0x6d655138        0x4 /opt/xmingw/lib/gcc-lib/i386-mingw32msvc/3.3.1/../../../../i386-mingw32msvc/lib/libmsvcrt.a(dzncs00519.o)
 .idata$4       0x6d65513c        0x4 /opt/xmingw/lib/gcc-lib/i386-mingw32msvc/3.3.1/../../../../i386-mingw32msvc/lib/libmsvcrt.a(dzncs00526.o)
 .idata$4       0x6d655140        0x4 /opt/xmingw/lib/gcc-lib/i386-mingw32msvc/3.3.1/../../../../i386-mingw32msvc/lib/libmsvcrt.a(dzncs00531.o)
 .idata$4       0x6d655144        0x4 /opt/xmingw/lib/gcc-lib/i386-mingw32msvc/3.3.1/../../../../i386-mingw32msvc/lib/libmsvcrt.a(dzncs00537.o)
 .idata$4       0x6d655148        0x4 /opt/xmingw/lib/gcc-lib/i386-mingw32msvc/3.3.1/../../../../i386-mingw32msvc/lib/libmsvcrt.a(dzncs00543.o)
 .idata$4       0x6d65514c        0x4 /opt/xmingw/lib/gcc-lib/i386-mingw32msvc/3.3.1/../../../../i386-mingw32msvc/lib/libmsvcrt.a(dzncs00546.o)
 .idata$4       0x6d655150        0x4 /opt/xmingw/lib/gcc-lib/i386-mingw32msvc/3.3.1/../../../../i386-mingw32msvc/lib/libmsvcrt.a(dzncs00552.o)
 .idata$4       0x6d655154        0x4 /opt/xmingw/lib/gcc-lib/i386-mingw32msvc/3.3.1/../../../../i386-mingw32msvc/lib/libmsvcrt.a(dzncs00554.o)
 .idata$4       0x6d655158        0x4 /opt/xmingw/lib/gcc-lib/i386-mingw32msvc/3.3.1/../../../../i386-mingw32msvc/lib/libmsvcrt.a(dzncs00596.o)
 .idata$4       0x6d65515c        0x4 /opt/xmingw/lib/gcc-lib/i386-mingw32msvc/3.3.1/../../../../i386-mingw32msvc/lib/libmsvcrt.a(dzncs00603.o)
 .idata$4       0x6d655160        0x4 /opt/xmingw/lib/gcc-lib/i386-mingw32msvc/3.3.1/../../../../i386-mingw32msvc/lib/libmsvcrt.a(dzncs00609.o)
 .idata$4       0x6d655164        0x4 /opt/xmingw/lib/gcc-lib/i386-mingw32msvc/3.3.1/../../../../i386-mingw32msvc/lib/libmsvcrt.a(dzncs00610.o)
 .idata$4       0x6d655168        0x4 /opt/xmingw/lib/gcc-lib/i386-mingw32msvc/3.3.1/../../../../i386-mingw32msvc/lib/libmsvcrt.a(dzncs00611.o)
 .idata$4       0x6d65516c        0x4 /opt/xmingw/lib/gcc-lib/i386-mingw32msvc/3.3.1/../../../../i386-mingw32msvc/lib/libmsvcrt.a(dzncs00616.o)
 .idata$4       0x6d655170        0x4 /opt/xmingw/lib/gcc-lib/i386-mingw32msvc/3.3.1/../../../../i386-mingw32msvc/lib/libmsvcrt.a(dzncs00619.o)
 .idata$4       0x6d655174        0x4 /opt/xmingw/lib/gcc-lib/i386-mingw32msvc/3.3.1/../../../../i386-mingw32msvc/lib/libmsvcrt.a(dzncs00624.o)
 .idata$4       0x6d655178        0x4 /opt/xmingw/lib/gcc-lib/i386-mingw32msvc/3.3.1/../../../../i386-mingw32msvc/lib/libmsvcrt.a(dzncs00625.o)
 .idata$4       0x6d65517c        0x4 /opt/xmingw/lib/gcc-lib/i386-mingw32msvc/3.3.1/../../../../i386-mingw32msvc/lib/libmsvcrt.a(dzncs00634.o)
 .idata$4       0x6d655180        0x4 /opt/xmingw/lib/gcc-lib/i386-mingw32msvc/3.3.1/../../../../i386-mingw32msvc/lib/libmsvcrt.a(dzncs00636.o)
 .idata$4       0x6d655184        0x4 /opt/xmingw/lib/gcc-lib/i386-mingw32msvc/3.3.1/../../../../i386-mingw32msvc/lib/libmsvcrt.a(dzncs00638.o)
 .idata$4       0x6d655188        0x4 /opt/xmingw/lib/gcc-lib/i386-mingw32msvc/3.3.1/../../../../i386-mingw32msvc/lib/libmsvcrt.a(dzncs00640.o)
 .idata$4       0x6d65518c        0x4 /opt/xmingw/lib/gcc-lib/i386-mingw32msvc/3.3.1/../../../../i386-mingw32msvc/lib/libmsvcrt.a(dzncs00642.o)
 .idata$4       0x6d655190        0x4 /opt/xmingw/lib/gcc-lib/i386-mingw32msvc/3.3.1/../../../../i386-mingw32msvc/lib/libmsvcrt.a(dzncs00644.o)
 .idata$4       0x6d655194        0x4 /opt/xmingw/lib/gcc-lib/i386-mingw32msvc/3.3.1/../../../../i386-mingw32msvc/lib/libmsvcrt.a(dzncs00648.o)
 .idata$4       0x6d655198        0x4 /opt/xmingw/lib/gcc-lib/i386-mingw32msvc/3.3.1/../../../../i386-mingw32msvc/lib/libmsvcrt.a(dzncs00670.o)
 .idata$4       0x6d65519c        0x4 /opt/xmingw/lib/gcc-lib/i386-mingw32msvc/3.3.1/../../../../i386-mingw32msvc/lib/libmsvcrt.a(dznct.o)
 .idata$4       0x6d6551a0        0x4 /opt/xmingw/lib/gcc-lib/i386-mingw32msvc/3.3.1/../../../../i386-mingw32msvc/lib/libuser32.a(dynvbh.o)
 .idata$4       0x6d6551a4        0x4 /opt/xmingw/lib/gcc-lib/i386-mingw32msvc/3.3.1/../../../../i386-mingw32msvc/lib/libuser32.a(dynvbs00053.o)
 .idata$4       0x6d6551a8        0x4 /opt/xmingw/lib/gcc-lib/i386-mingw32msvc/3.3.1/../../../../i386-mingw32msvc/lib/libuser32.a(dynvbs00146.o)
 .idata$4       0x6d6551ac        0x4 /opt/xmingw/lib/gcc-lib/i386-mingw32msvc/3.3.1/../../../../i386-mingw32msvc/lib/libuser32.a(dynvbs00179.o)
 .idata$4       0x6d6551b0        0x4 /opt/xmingw/lib/gcc-lib/i386-mingw32msvc/3.3.1/../../../../i386-mingw32msvc/lib/libuser32.a(dynvbs00181.o)
 .idata$4       0x6d6551b4        0x4 /opt/xmingw/lib/gcc-lib/i386-mingw32msvc/3.3.1/../../../../i386-mingw32msvc/lib/libuser32.a(dynvbs00235.o)
 .idata$4       0x6d6551b8        0x4 /opt/xmingw/lib/gcc-lib/i386-mingw32msvc/3.3.1/../../../../i386-mingw32msvc/lib/libuser32.a(dynvbs00246.o)
 .idata$4       0x6d6551bc        0x4 /opt/xmingw/lib/gcc-lib/i386-mingw32msvc/3.3.1/../../../../i386-mingw32msvc/lib/libuser32.a(dynvbs00247.o)
 .idata$4       0x6d6551c0        0x4 /opt/xmingw/lib/gcc-lib/i386-mingw32msvc/3.3.1/../../../../i386-mingw32msvc/lib/libuser32.a(dynvbs00249.o)
 .idata$4       0x6d6551c4        0x4 /opt/xmingw/lib/gcc-lib/i386-mingw32msvc/3.3.1/../../../../i386-mingw32msvc/lib/libuser32.a(dynvbs00251.o)
 .idata$4       0x6d6551c8        0x4 /opt/xmingw/lib/gcc-lib/i386-mingw32msvc/3.3.1/../../../../i386-mingw32msvc/lib/libuser32.a(dynvbs00252.o)
 .idata$4       0x6d6551cc        0x4 /opt/xmingw/lib/gcc-lib/i386-mingw32msvc/3.3.1/../../../../i386-mingw32msvc/lib/libuser32.a(dynvbs00253.o)
 .idata$4       0x6d6551d0        0x4 /opt/xmingw/lib/gcc-lib/i386-mingw32msvc/3.3.1/../../../../i386-mingw32msvc/lib/libuser32.a(dynvbs00254.o)
 .idata$4       0x6d6551d4        0x4 /opt/xmingw/lib/gcc-lib/i386-mingw32msvc/3.3.1/../../../../i386-mingw32msvc/lib/libuser32.a(dynvbs00346.o)
 .idata$4       0x6d6551d8        0x4 /opt/xmingw/lib/gcc-lib/i386-mingw32msvc/3.3.1/../../../../i386-mingw32msvc/lib/libuser32.a(dynvbs00383.o)
 .idata$4       0x6d6551dc        0x4 /opt/xmingw/lib/gcc-lib/i386-mingw32msvc/3.3.1/../../../../i386-mingw32msvc/lib/libuser32.a(dynvbs00429.o)
 .idata$4       0x6d6551e0        0x4 /opt/xmingw/lib/gcc-lib/i386-mingw32msvc/3.3.1/../../../../i386-mingw32msvc/lib/libuser32.a(dynvbs00430.o)
 .idata$4       0x6d6551e4        0x4 /opt/xmingw/lib/gcc-lib/i386-mingw32msvc/3.3.1/../../../../i386-mingw32msvc/lib/libuser32.a(dynvbs00438.o)
 .idata$4       0x6d6551e8        0x4 /opt/xmingw/lib/gcc-lib/i386-mingw32msvc/3.3.1/../../../../i386-mingw32msvc/lib/libuser32.a(dynvbs00482.o)
 .idata$4       0x6d6551ec        0x4 /opt/xmingw/lib/gcc-lib/i386-mingw32msvc/3.3.1/../../../../i386-mingw32msvc/lib/libuser32.a(dynvbs00483.o)
 .idata$4       0x6d6551f0        0x4 /opt/xmingw/lib/gcc-lib/i386-mingw32msvc/3.3.1/../../../../i386-mingw32msvc/lib/libuser32.a(dynvbs00494.o)
 .idata$4       0x6d6551f4        0x4 /opt/xmingw/lib/gcc-lib/i386-mingw32msvc/3.3.1/../../../../i386-mingw32msvc/lib/libuser32.a(dynvbs00506.o)
 .idata$4       0x6d6551f8        0x4 /opt/xmingw/lib/gcc-lib/i386-mingw32msvc/3.3.1/../../../../i386-mingw32msvc/lib/libuser32.a(dynvbs00518.o)
 .idata$4       0x6d6551fc        0x4 /opt/xmingw/lib/gcc-lib/i386-mingw32msvc/3.3.1/../../../../i386-mingw32msvc/lib/libuser32.a(dynvbs00519.o)
 .idata$4       0x6d655200        0x4 /opt/xmingw/lib/gcc-lib/i386-mingw32msvc/3.3.1/../../../../i386-mingw32msvc/lib/libuser32.a(dynvbs00522.o)
 .idata$4       0x6d655204        0x4 /opt/xmingw/lib/gcc-lib/i386-mingw32msvc/3.3.1/../../../../i386-mingw32msvc/lib/libuser32.a(dynvbs00574.o)
 .idata$4       0x6d655208        0x4 /opt/xmingw/lib/gcc-lib/i386-mingw32msvc/3.3.1/../../../../i386-mingw32msvc/lib/libuser32.a(dynvbt.o)
 SORT(*)(.idata$5)
 .idata$5       0x6d65520c        0x4 /opt/xmingw/lib/gcc-lib/i386-mingw32msvc/3.3.1/../../../../i386-mingw32msvc/lib/libcomdlg32.a(dkfvbh.o)
 .idata$5       0x6d655210        0x4 /opt/xmingw/lib/gcc-lib/i386-mingw32msvc/3.3.1/../../../../i386-mingw32msvc/lib/libcomdlg32.a(dkfvbs00009.o)
                0x6d655210                _imp__GetOpenFileNameA@4
 .idata$5       0x6d655214        0x4 /opt/xmingw/lib/gcc-lib/i386-mingw32msvc/3.3.1/../../../../i386-mingw32msvc/lib/libcomdlg32.a(dkfvbs00011.o)
                0x6d655214                _imp__GetSaveFileNameA@4
 .idata$5       0x6d655218        0x4 /opt/xmingw/lib/gcc-lib/i386-mingw32msvc/3.3.1/../../../../i386-mingw32msvc/lib/libcomdlg32.a(dkfvbt.o)
 .idata$5       0x6d65521c        0x4 /opt/xmingw/lib/gcc-lib/i386-mingw32msvc/3.3.1/../../../../i386-mingw32msvc/lib/libgdi32.a(dihvbh.o)
 .idata$5       0x6d655220        0x4 /opt/xmingw/lib/gcc-lib/i386-mingw32msvc/3.3.1/../../../../i386-mingw32msvc/lib/libgdi32.a(dihvbs00038.o)
                0x6d655220                _imp__CreateDIBSection@24
 .idata$5       0x6d655224        0x4 /opt/xmingw/lib/gcc-lib/i386-mingw32msvc/3.3.1/../../../../i386-mingw32msvc/lib/libgdi32.a(dihvbs00072.o)
                0x6d655224                _imp__DeleteObject@4
 .idata$5       0x6d655228        0x4 /opt/xmingw/lib/gcc-lib/i386-mingw32msvc/3.3.1/../../../../i386-mingw32msvc/lib/libgdi32.a(dihvbs00195.o)
                0x6d655228                _imp__GetStockObject@4
 .idata$5       0x6d65522c        0x4 /opt/xmingw/lib/gcc-lib/i386-mingw32msvc/3.3.1/../../../../i386-mingw32msvc/lib/libgdi32.a(dihvbt.o)
 .idata$5       0x6d655230        0x4 /opt/xmingw/lib/gcc-lib/i386-mingw32msvc/3.3.1/../../../../i386-mingw32msvc/lib/libkernel32.a(dmivbh.o)
 .idata$5       0x6d655234        0x4 /opt/xmingw/lib/gcc-lib/i386-mingw32msvc/3.3.1/../../../../i386-mingw32msvc/lib/libkernel32.a(dmivbs00001.o)
                0x6d655234                _imp__AddAtomA@4
 .idata$5       0x6d655238        0x4 /opt/xmingw/lib/gcc-lib/i386-mingw32msvc/3.3.1/../../../../i386-mingw32msvc/lib/libkernel32.a(dmivbs00019.o)
                0x6d655238                _imp__BeginUpdateResourceA@8
 .idata$5       0x6d65523c        0x4 /opt/xmingw/lib/gcc-lib/i386-mingw32msvc/3.3.1/../../../../i386-mingw32msvc/lib/libkernel32.a(dmivbs00038.o)
                0x6d65523c                _imp__CloseHandle@4
 .idata$5       0x6d655240        0x4 /opt/xmingw/lib/gcc-lib/i386-mingw32msvc/3.3.1/../../../../i386-mingw32msvc/lib/libkernel32.a(dmivbs00053.o)
                0x6d655240                _imp__CopyFileA@12
 .idata$5       0x6d655244        0x4 /opt/xmingw/lib/gcc-lib/i386-mingw32msvc/3.3.1/../../../../i386-mingw32msvc/lib/libkernel32.a(dmivbs00068.o)
                0x6d655244                _imp__CreateFileA@28
 .idata$5       0x6d655248        0x4 /opt/xmingw/lib/gcc-lib/i386-mingw32msvc/3.3.1/../../../../i386-mingw32msvc/lib/libkernel32.a(dmivbs00108.o)
                0x6d655248                _imp__DeleteFileA@4
 .idata$5       0x6d65524c        0x4 /opt/xmingw/lib/gcc-lib/i386-mingw32msvc/3.3.1/../../../../i386-mingw32msvc/lib/libkernel32.a(dmivbs00123.o)
                0x6d65524c                _imp__EndUpdateResourceA@8
 .idata$5       0x6d655250        0x4 /opt/xmingw/lib/gcc-lib/i386-mingw32msvc/3.3.1/../../../../i386-mingw32msvc/lib/libkernel32.a(dmivbs00175.o)
                0x6d655250                _imp__FindAtomA@4
 .idata$5       0x6d655254        0x4 /opt/xmingw/lib/gcc-lib/i386-mingw32msvc/3.3.1/../../../../i386-mingw32msvc/lib/libkernel32.a(dmivbs00196.o)
                0x6d655254                _imp__FindResourceA@12
 .idata$5       0x6d655258        0x4 /opt/xmingw/lib/gcc-lib/i386-mingw32msvc/3.3.1/../../../../i386-mingw32msvc/lib/libkernel32.a(dmivbs00208.o)
                0x6d655258                _imp__FormatMessageA@28
 .idata$5       0x6d65525c        0x4 /opt/xmingw/lib/gcc-lib/i386-mingw32msvc/3.3.1/../../../../i386-mingw32msvc/lib/libkernel32.a(dmivbs00213.o)
                0x6d65525c                _imp__FreeLibrary@4
 .idata$5       0x6d655260        0x4 /opt/xmingw/lib/gcc-lib/i386-mingw32msvc/3.3.1/../../../../i386-mingw32msvc/lib/libkernel32.a(dmivbs00220.o)
                0x6d655260                _imp__GetAtomNameA@12
 .idata$5       0x6d655264        0x4 /opt/xmingw/lib/gcc-lib/i386-mingw32msvc/3.3.1/../../../../i386-mingw32msvc/lib/libkernel32.a(dmivbs00311.o)
                0x6d655264                _imp__GetFileSize@8
 .idata$5       0x6d655268        0x4 /opt/xmingw/lib/gcc-lib/i386-mingw32msvc/3.3.1/../../../../i386-mingw32msvc/lib/libkernel32.a(dmivbs00323.o)
                0x6d655268                _imp__GetLastError@0
 .idata$5       0x6d65526c        0x4 /opt/xmingw/lib/gcc-lib/i386-mingw32msvc/3.3.1/../../../../i386-mingw32msvc/lib/libkernel32.a(dmivbs00333.o)
                0x6d65526c                _imp__GetModuleFileNameA@12
 .idata$5       0x6d655270        0x4 /opt/xmingw/lib/gcc-lib/i386-mingw32msvc/3.3.1/../../../../i386-mingw32msvc/lib/libkernel32.a(dmivbs00421.o)
                0x6d655270                _imp__GetTickCount@0
 .idata$5       0x6d655274        0x4 /opt/xmingw/lib/gcc-lib/i386-mingw32msvc/3.3.1/../../../../i386-mingw32msvc/lib/libkernel32.a(dmivbs00431.o)
                0x6d655274                _imp__GetVersionExA@4
 .idata$5       0x6d655278        0x4 /opt/xmingw/lib/gcc-lib/i386-mingw32msvc/3.3.1/../../../../i386-mingw32msvc/lib/libkernel32.a(dmivbs00523.o)
                0x6d655278                _imp__LoadLibraryExA@12
 .idata$5       0x6d65527c        0x4 /opt/xmingw/lib/gcc-lib/i386-mingw32msvc/3.3.1/../../../../i386-mingw32msvc/lib/libkernel32.a(dmivbs00527.o)
                0x6d65527c                _imp__LoadResource@8
 .idata$5       0x6d655280        0x4 /opt/xmingw/lib/gcc-lib/i386-mingw32msvc/3.3.1/../../../../i386-mingw32msvc/lib/libkernel32.a(dmivbs00541.o)
                0x6d655280                _imp__LockResource@4
 .idata$5       0x6d655284        0x4 /opt/xmingw/lib/gcc-lib/i386-mingw32msvc/3.3.1/../../../../i386-mingw32msvc/lib/libkernel32.a(dmivbs00613.o)
                0x6d655284                _imp__ReadFile@20
 .idata$5       0x6d655288        0x4 /opt/xmingw/lib/gcc-lib/i386-mingw32msvc/3.3.1/../../../../i386-mingw32msvc/lib/libkernel32.a(dmivbs00690.o)
                0x6d655288                _imp__SetEndOfFile@4
 .idata$5       0x6d65528c        0x4 /opt/xmingw/lib/gcc-lib/i386-mingw32msvc/3.3.1/../../../../i386-mingw32msvc/lib/libkernel32.a(dmivbs00699.o)
                0x6d65528c                _imp__SetFilePointer@16
 .idata$5       0x6d655290        0x4 /opt/xmingw/lib/gcc-lib/i386-mingw32msvc/3.3.1/../../../../i386-mingw32msvc/lib/libkernel32.a(dmivbs00746.o)
                0x6d655290                _imp__SizeofResource@8
 .idata$5       0x6d655294        0x4 /opt/xmingw/lib/gcc-lib/i386-mingw32msvc/3.3.1/../../../../i386-mingw32msvc/lib/libkernel32.a(dmivbs00776.o)
                0x6d655294                _imp__UpdateResourceA@24
 .idata$5       0x6d655298        0x4 /opt/xmingw/lib/gcc-lib/i386-mingw32msvc/3.3.1/../../../../i386-mingw32msvc/lib/libkernel32.a(dmivbs00822.o)
                0x6d655298                _imp__WriteFile@20
 .idata$5       0x6d65529c        0x4 /opt/xmingw/lib/gcc-lib/i386-mingw32msvc/3.3.1/../../../../i386-mingw32msvc/lib/libkernel32.a(dmivbt.o)
 .idata$5       0x6d6552a0        0x4 /opt/xmingw/lib/gcc-lib/i386-mingw32msvc/3.3.1/../../../../i386-mingw32msvc/lib/libmsvcrt.a(dznch.o)
 .idata$5       0x6d6552a4        0x4 /opt/xmingw/lib/gcc-lib/i386-mingw32msvc/3.3.1/../../../../i386-mingw32msvc/lib/libmsvcrt.a(dzncs00036.o)
                0x6d6552a4                _imp____dllonexit
 .idata$5       0x6d6552a8        0x4 /opt/xmingw/lib/gcc-lib/i386-mingw32msvc/3.3.1/../../../../i386-mingw32msvc/lib/libmsvcrt.a(dzncs00047.o)
                0x6d6552a8                _imp____mb_cur_max
 .idata$5       0x6d6552ac        0x4 /opt/xmingw/lib/gcc-lib/i386-mingw32msvc/3.3.1/../../../../i386-mingw32msvc/lib/libmsvcrt.a(dzncs00147.o)
                0x6d6552ac                _imp___errno
 .idata$5       0x6d6552b0        0x4 /opt/xmingw/lib/gcc-lib/i386-mingw32msvc/3.3.1/../../../../i386-mingw32msvc/lib/libmsvcrt.a(dzncs00176.o)
                0x6d6552b0                _imp___flsbuf
 .idata$5       0x6d6552b4        0x4 /opt/xmingw/lib/gcc-lib/i386-mingw32msvc/3.3.1/../../../../i386-mingw32msvc/lib/libmsvcrt.a(dzncs00222.o)
                0x6d6552b4                _imp___iob
 .idata$5       0x6d6552b8        0x4 /opt/xmingw/lib/gcc-lib/i386-mingw32msvc/3.3.1/../../../../i386-mingw32msvc/lib/libmsvcrt.a(dzncs00224.o)
                0x6d6552b8                _imp___isctype
 .idata$5       0x6d6552bc        0x4 /opt/xmingw/lib/gcc-lib/i386-mingw32msvc/3.3.1/../../../../i386-mingw32msvc/lib/libmsvcrt.a(dzncs00344.o)
                0x6d6552bc                _imp___pctype
 .idata$5       0x6d6552c0        0x4 /opt/xmingw/lib/gcc-lib/i386-mingw32msvc/3.3.1/../../../../i386-mingw32msvc/lib/libmsvcrt.a(dzncs00395.o)
                0x6d6552c0                _imp___stricmp
 .idata$5       0x6d6552c4        0x4 /opt/xmingw/lib/gcc-lib/i386-mingw32msvc/3.3.1/../../../../i386-mingw32msvc/lib/libmsvcrt.a(dzncs00510.o)
                0x6d6552c4                _imp__abort
 .idata$5       0x6d6552c8        0x4 /opt/xmingw/lib/gcc-lib/i386-mingw32msvc/3.3.1/../../../../i386-mingw32msvc/lib/libmsvcrt.a(dzncs00516.o)
                0x6d6552c8                _imp__atan2
 .idata$5       0x6d6552cc        0x4 /opt/xmingw/lib/gcc-lib/i386-mingw32msvc/3.3.1/../../../../i386-mingw32msvc/lib/libmsvcrt.a(dzncs00519.o)
                0x6d6552cc                _imp__atoi
 .idata$5       0x6d6552d0        0x4 /opt/xmingw/lib/gcc-lib/i386-mingw32msvc/3.3.1/../../../../i386-mingw32msvc/lib/libmsvcrt.a(dzncs00526.o)
                0x6d6552d0                _imp__cos
 .idata$5       0x6d6552d4        0x4 /opt/xmingw/lib/gcc-lib/i386-mingw32msvc/3.3.1/../../../../i386-mingw32msvc/lib/libmsvcrt.a(dzncs00531.o)
                0x6d6552d4                _imp__exit
 .idata$5       0x6d6552d8        0x4 /opt/xmingw/lib/gcc-lib/i386-mingw32msvc/3.3.1/../../../../i386-mingw32msvc/lib/libmsvcrt.a(dzncs00537.o)
                0x6d6552d8                _imp__fflush
 .idata$5       0x6d6552dc        0x4 /opt/xmingw/lib/gcc-lib/i386-mingw32msvc/3.3.1/../../../../i386-mingw32msvc/lib/libmsvcrt.a(dzncs00543.o)
                0x6d6552dc                _imp__floor
 .idata$5       0x6d6552e0        0x4 /opt/xmingw/lib/gcc-lib/i386-mingw32msvc/3.3.1/../../../../i386-mingw32msvc/lib/libmsvcrt.a(dzncs00546.o)
                0x6d6552e0                _imp__fprintf
 .idata$5       0x6d6552e4        0x4 /opt/xmingw/lib/gcc-lib/i386-mingw32msvc/3.3.1/../../../../i386-mingw32msvc/lib/libmsvcrt.a(dzncs00552.o)
                0x6d6552e4                _imp__free
 .idata$5       0x6d6552e8        0x4 /opt/xmingw/lib/gcc-lib/i386-mingw32msvc/3.3.1/../../../../i386-mingw32msvc/lib/libmsvcrt.a(dzncs00554.o)
                0x6d6552e8                _imp__frexp
 .idata$5       0x6d6552ec        0x4 /opt/xmingw/lib/gcc-lib/i386-mingw32msvc/3.3.1/../../../../i386-mingw32msvc/lib/libmsvcrt.a(dzncs00596.o)
                0x6d6552ec                _imp__ldexp
 .idata$5       0x6d6552f0        0x4 /opt/xmingw/lib/gcc-lib/i386-mingw32msvc/3.3.1/../../../../i386-mingw32msvc/lib/libmsvcrt.a(dzncs00603.o)
                0x6d6552f0                _imp__malloc
 .idata$5       0x6d6552f4        0x4 /opt/xmingw/lib/gcc-lib/i386-mingw32msvc/3.3.1/../../../../i386-mingw32msvc/lib/libmsvcrt.a(dzncs00609.o)
                0x6d6552f4                _imp__memcpy
 .idata$5       0x6d6552f8        0x4 /opt/xmingw/lib/gcc-lib/i386-mingw32msvc/3.3.1/../../../../i386-mingw32msvc/lib/libmsvcrt.a(dzncs00610.o)
                0x6d6552f8                _imp__memmove
 .idata$5       0x6d6552fc        0x4 /opt/xmingw/lib/gcc-lib/i386-mingw32msvc/3.3.1/../../../../i386-mingw32msvc/lib/libmsvcrt.a(dzncs00611.o)
                0x6d6552fc                _imp__memset
 .idata$5       0x6d655300        0x4 /opt/xmingw/lib/gcc-lib/i386-mingw32msvc/3.3.1/../../../../i386-mingw32msvc/lib/libmsvcrt.a(dzncs00616.o)
                0x6d655300                _imp__printf
 .idata$5       0x6d655304        0x4 /opt/xmingw/lib/gcc-lib/i386-mingw32msvc/3.3.1/../../../../i386-mingw32msvc/lib/libmsvcrt.a(dzncs00619.o)
                0x6d655304                _imp__puts
 .idata$5       0x6d655308        0x4 /opt/xmingw/lib/gcc-lib/i386-mingw32msvc/3.3.1/../../../../i386-mingw32msvc/lib/libmsvcrt.a(dzncs00624.o)
                0x6d655308                _imp__rand
 .idata$5       0x6d65530c        0x4 /opt/xmingw/lib/gcc-lib/i386-mingw32msvc/3.3.1/../../../../i386-mingw32msvc/lib/libmsvcrt.a(dzncs00625.o)
                0x6d65530c                _imp__realloc
 .idata$5       0x6d655310        0x4 /opt/xmingw/lib/gcc-lib/i386-mingw32msvc/3.3.1/../../../../i386-mingw32msvc/lib/libmsvcrt.a(dzncs00634.o)
                0x6d655310                _imp__sin
 .idata$5       0x6d655314        0x4 /opt/xmingw/lib/gcc-lib/i386-mingw32msvc/3.3.1/../../../../i386-mingw32msvc/lib/libmsvcrt.a(dzncs00636.o)
                0x6d655314                _imp__sprintf
 .idata$5       0x6d655318        0x4 /opt/xmingw/lib/gcc-lib/i386-mingw32msvc/3.3.1/../../../../i386-mingw32msvc/lib/libmsvcrt.a(dzncs00638.o)
                0x6d655318                _imp__srand
 .idata$5       0x6d65531c        0x4 /opt/xmingw/lib/gcc-lib/i386-mingw32msvc/3.3.1/../../../../i386-mingw32msvc/lib/libmsvcrt.a(dzncs00640.o)
                0x6d65531c                _imp__strcat
 .idata$5       0x6d655320        0x4 /opt/xmingw/lib/gcc-lib/i386-mingw32msvc/3.3.1/../../../../i386-mingw32msvc/lib/libmsvcrt.a(dzncs00642.o)
                0x6d655320                _imp__strcmp
 .idata$5       0x6d655324        0x4 /opt/xmingw/lib/gcc-lib/i386-mingw32msvc/3.3.1/../../../../i386-mingw32msvc/lib/libmsvcrt.a(dzncs00644.o)
                0x6d655324                _imp__strcpy
 .idata$5       0x6d655328        0x4 /opt/xmingw/lib/gcc-lib/i386-mingw32msvc/3.3.1/../../../../i386-mingw32msvc/lib/libmsvcrt.a(dzncs00648.o)
                0x6d655328                _imp__strlen
 .idata$5       0x6d65532c        0x4 /opt/xmingw/lib/gcc-lib/i386-mingw32msvc/3.3.1/../../../../i386-mingw32msvc/lib/libmsvcrt.a(dzncs00670.o)
                0x6d65532c                _imp__toupper
 .idata$5       0x6d655330        0x4 /opt/xmingw/lib/gcc-lib/i386-mingw32msvc/3.3.1/../../../../i386-mingw32msvc/lib/libmsvcrt.a(dznct.o)
 .idata$5       0x6d655334        0x4 /opt/xmingw/lib/gcc-lib/i386-mingw32msvc/3.3.1/../../../../i386-mingw32msvc/lib/libuser32.a(dynvbh.o)
 .idata$5       0x6d655338        0x4 /opt/xmingw/lib/gcc-lib/i386-mingw32msvc/3.3.1/../../../../i386-mingw32msvc/lib/libuser32.a(dynvbs00053.o)
                0x6d655338                _imp__CheckDlgButton@12
 .idata$5       0x6d65533c        0x4 /opt/xmingw/lib/gcc-lib/i386-mingw32msvc/3.3.1/../../../../i386-mingw32msvc/lib/libuser32.a(dynvbs00146.o)
                0x6d65533c                _imp__DialogBoxParamA@20
 .idata$5       0x6d655340        0x4 /opt/xmingw/lib/gcc-lib/i386-mingw32msvc/3.3.1/../../../../i386-mingw32msvc/lib/libuser32.a(dynvbs00179.o)
                0x6d655340                _imp__EnableWindow@8
 .idata$5       0x6d655344        0x4 /opt/xmingw/lib/gcc-lib/i386-mingw32msvc/3.3.1/../../../../i386-mingw32msvc/lib/libuser32.a(dynvbs00181.o)
                0x6d655344                _imp__EndDialog@8
 .idata$5       0x6d655348        0x4 /opt/xmingw/lib/gcc-lib/i386-mingw32msvc/3.3.1/../../../../i386-mingw32msvc/lib/libuser32.a(dynvbs00235.o)
                0x6d655348                _imp__GetClientRect@8
 .idata$5       0x6d65534c        0x4 /opt/xmingw/lib/gcc-lib/i386-mingw32msvc/3.3.1/../../../../i386-mingw32msvc/lib/libuser32.a(dynvbs00246.o)
                0x6d65534c                _imp__GetCursorPos@4
 .idata$5       0x6d655350        0x4 /opt/xmingw/lib/gcc-lib/i386-mingw32msvc/3.3.1/../../../../i386-mingw32msvc/lib/libuser32.a(dynvbs00247.o)
                0x6d655350                _imp__GetDC@4
 .idata$5       0x6d655354        0x4 /opt/xmingw/lib/gcc-lib/i386-mingw32msvc/3.3.1/../../../../i386-mingw32msvc/lib/libuser32.a(dynvbs00249.o)
                0x6d655354                _imp__GetDesktopWindow@0
 .idata$5       0x6d655358        0x4 /opt/xmingw/lib/gcc-lib/i386-mingw32msvc/3.3.1/../../../../i386-mingw32msvc/lib/libuser32.a(dynvbs00251.o)
                0x6d655358                _imp__GetDlgCtrlID@4
 .idata$5       0x6d65535c        0x4 /opt/xmingw/lib/gcc-lib/i386-mingw32msvc/3.3.1/../../../../i386-mingw32msvc/lib/libuser32.a(dynvbs00252.o)
                0x6d65535c                _imp__GetDlgItem@8
 .idata$5       0x6d655360        0x4 /opt/xmingw/lib/gcc-lib/i386-mingw32msvc/3.3.1/../../../../i386-mingw32msvc/lib/libuser32.a(dynvbs00253.o)
                0x6d655360                _imp__GetDlgItemInt@16
 .idata$5       0x6d655364        0x4 /opt/xmingw/lib/gcc-lib/i386-mingw32msvc/3.3.1/../../../../i386-mingw32msvc/lib/libuser32.a(dynvbs00254.o)
                0x6d655364                _imp__GetDlgItemTextA@16
 .idata$5       0x6d655368        0x4 /opt/xmingw/lib/gcc-lib/i386-mingw32msvc/3.3.1/../../../../i386-mingw32msvc/lib/libuser32.a(dynvbs00346.o)
                0x6d655368                _imp__GetWindowRect@8
 .idata$5       0x6d65536c        0x4 /opt/xmingw/lib/gcc-lib/i386-mingw32msvc/3.3.1/../../../../i386-mingw32msvc/lib/libuser32.a(dynvbs00383.o)
                0x6d65536c                _imp__IsDlgButtonChecked@8
 .idata$5       0x6d655370        0x4 /opt/xmingw/lib/gcc-lib/i386-mingw32msvc/3.3.1/../../../../i386-mingw32msvc/lib/libuser32.a(dynvbs00429.o)
                0x6d655370                _imp__MessageBeep@4
 .idata$5       0x6d655374        0x4 /opt/xmingw/lib/gcc-lib/i386-mingw32msvc/3.3.1/../../../../i386-mingw32msvc/lib/libuser32.a(dynvbs00430.o)
                0x6d655374                _imp__MessageBoxA@16
 .idata$5       0x6d655378        0x4 /opt/xmingw/lib/gcc-lib/i386-mingw32msvc/3.3.1/../../../../i386-mingw32msvc/lib/libuser32.a(dynvbs00438.o)
                0x6d655378                _imp__MoveWindow@24
 .idata$5       0x6d65537c        0x4 /opt/xmingw/lib/gcc-lib/i386-mingw32msvc/3.3.1/../../../../i386-mingw32msvc/lib/libuser32.a(dynvbs00482.o)
                0x6d65537c                _imp__ReleaseCapture@0
 .idata$5       0x6d655380        0x4 /opt/xmingw/lib/gcc-lib/i386-mingw32msvc/3.3.1/../../../../i386-mingw32msvc/lib/libuser32.a(dynvbs00483.o)
                0x6d655380                _imp__ReleaseDC@8
 .idata$5       0x6d655384        0x4 /opt/xmingw/lib/gcc-lib/i386-mingw32msvc/3.3.1/../../../../i386-mingw32msvc/lib/libuser32.a(dynvbs00494.o)
                0x6d655384                _imp__SendDlgItemMessageA@20
 .idata$5       0x6d655388        0x4 /opt/xmingw/lib/gcc-lib/i386-mingw32msvc/3.3.1/../../../../i386-mingw32msvc/lib/libuser32.a(dynvbs00506.o)
                0x6d655388                _imp__SetCapture@4
 .idata$5       0x6d65538c        0x4 /opt/xmingw/lib/gcc-lib/i386-mingw32msvc/3.3.1/../../../../i386-mingw32msvc/lib/libuser32.a(dynvbs00518.o)
                0x6d65538c                _imp__SetDlgItemInt@16
 .idata$5       0x6d655390        0x4 /opt/xmingw/lib/gcc-lib/i386-mingw32msvc/3.3.1/../../../../i386-mingw32msvc/lib/libuser32.a(dynvbs00519.o)
                0x6d655390                _imp__SetDlgItemTextA@12
 .idata$5       0x6d655394        0x4 /opt/xmingw/lib/gcc-lib/i386-mingw32msvc/3.3.1/../../../../i386-mingw32msvc/lib/libuser32.a(dynvbs00522.o)
                0x6d655394                _imp__SetFocus@4
 .idata$5       0x6d655398        0x4 /opt/xmingw/lib/gcc-lib/i386-mingw32msvc/3.3.1/../../../../i386-mingw32msvc/lib/libuser32.a(dynvbs00574.o)
                0x6d655398                _imp__ShowWindow@8
 .idata$5       0x6d65539c        0x4 /opt/xmingw/lib/gcc-lib/i386-mingw32msvc/3.3.1/../../../../i386-mingw32msvc/lib/libuser32.a(dynvbt.o)
 SORT(*)(.idata$6)
 .idata$6       0x6d6553a0       0x14 /opt/xmingw/lib/gcc-lib/i386-mingw32msvc/3.3.1/../../../../i386-mingw32msvc/lib/libcomdlg32.a(dkfvbs00009.o)
 .idata$6       0x6d6553b4       0x14 /opt/xmingw/lib/gcc-lib/i386-mingw32msvc/3.3.1/../../../../i386-mingw32msvc/lib/libcomdlg32.a(dkfvbs00011.o)
 .idata$6       0x6d6553c8       0x14 /opt/xmingw/lib/gcc-lib/i386-mingw32msvc/3.3.1/../../../../i386-mingw32msvc/lib/libgdi32.a(dihvbs00038.o)
 .idata$6       0x6d6553dc       0x10 /opt/xmingw/lib/gcc-lib/i386-mingw32msvc/3.3.1/../../../../i386-mingw32msvc/lib/libgdi32.a(dihvbs00072.o)
 .idata$6       0x6d6553ec       0x12 /opt/xmingw/lib/gcc-lib/i386-mingw32msvc/3.3.1/../../../../i386-mingw32msvc/lib/libgdi32.a(dihvbs00195.o)
 *fill*         0x6d6553fe        0x2 00
 .idata$6       0x6d655400        0xc /opt/xmingw/lib/gcc-lib/i386-mingw32msvc/3.3.1/../../../../i386-mingw32msvc/lib/libkernel32.a(dmivbs00001.o)
 .idata$6       0x6d65540c       0x18 /opt/xmingw/lib/gcc-lib/i386-mingw32msvc/3.3.1/../../../../i386-mingw32msvc/lib/libkernel32.a(dmivbs00019.o)
 .idata$6       0x6d655424        0xe /opt/xmingw/lib/gcc-lib/i386-mingw32msvc/3.3.1/../../../../i386-mingw32msvc/lib/libkernel32.a(dmivbs00038.o)
 *fill*         0x6d655432        0x2 00
 .idata$6       0x6d655434        0xc /opt/xmingw/lib/gcc-lib/i386-mingw32msvc/3.3.1/../../../../i386-mingw32msvc/lib/libkernel32.a(dmivbs00053.o)
 .idata$6       0x6d655440        0xe /opt/xmingw/lib/gcc-lib/i386-mingw32msvc/3.3.1/../../../../i386-mingw32msvc/lib/libkernel32.a(dmivbs00068.o)
 *fill*         0x6d65544e        0x2 00
 .idata$6       0x6d655450        0xe /opt/xmingw/lib/gcc-lib/i386-mingw32msvc/3.3.1/../../../../i386-mingw32msvc/lib/libkernel32.a(dmivbs00108.o)
 *fill*         0x6d65545e        0x2 00
 .idata$6       0x6d655460       0x16 /opt/xmingw/lib/gcc-lib/i386-mingw32msvc/3.3.1/../../../../i386-mingw32msvc/lib/libkernel32.a(dmivbs00123.o)
 *fill*         0x6d655476        0x2 00
 .idata$6       0x6d655478        0xc /opt/xmingw/lib/gcc-lib/i386-mingw32msvc/3.3.1/../../../../i386-mingw32msvc/lib/libkernel32.a(dmivbs00175.o)
 .idata$6       0x6d655484       0x10 /opt/xmingw/lib/gcc-lib/i386-mingw32msvc/3.3.1/../../../../i386-mingw32msvc/lib/libkernel32.a(dmivbs00196.o)
 .idata$6       0x6d655494       0x12 /opt/xmingw/lib/gcc-lib/i386-mingw32msvc/3.3.1/../../../../i386-mingw32msvc/lib/libkernel32.a(dmivbs00208.o)
 *fill*         0x6d6554a6        0x2 00
 .idata$6       0x6d6554a8        0xe /opt/xmingw/lib/gcc-lib/i386-mingw32msvc/3.3.1/../../../../i386-mingw32msvc/lib/libkernel32.a(dmivbs00213.o)
 *fill*         0x6d6554b6        0x2 00
 .idata$6       0x6d6554b8       0x10 /opt/xmingw/lib/gcc-lib/i386-mingw32msvc/3.3.1/../../../../i386-mingw32msvc/lib/libkernel32.a(dmivbs00220.o)
 .idata$6       0x6d6554c8        0xe /opt/xmingw/lib/gcc-lib/i386-mingw32msvc/3.3.1/../../../../i386-mingw32msvc/lib/libkernel32.a(dmivbs00311.o)
 *fill*         0x6d6554d6        0x2 00
 .idata$6       0x6d6554d8       0x10 /opt/xmingw/lib/gcc-lib/i386-mingw32msvc/3.3.1/../../../../i386-mingw32msvc/lib/libkernel32.a(dmivbs00323.o)
 .idata$6       0x6d6554e8       0x16 /opt/xmingw/lib/gcc-lib/i386-mingw32msvc/3.3.1/../../../../i386-mingw32msvc/lib/libkernel32.a(dmivbs00333.o)
 *fill*         0x6d6554fe        0x2 00
 .idata$6       0x6d655500       0x10 /opt/xmingw/lib/gcc-lib/i386-mingw32msvc/3.3.1/../../../../i386-mingw32msvc/lib/libkernel32.a(dmivbs00421.o)
 .idata$6       0x6d655510       0x10 /opt/xmingw/lib/gcc-lib/i386-mingw32msvc/3.3.1/../../../../i386-mingw32msvc/lib/libkernel32.a(dmivbs00431.o)
 .idata$6       0x6d655520       0x12 /opt/xmingw/lib/gcc-lib/i386-mingw32msvc/3.3.1/../../../../i386-mingw32msvc/lib/libkernel32.a(dmivbs00523.o)
 *fill*         0x6d655532        0x2 00
 .idata$6       0x6d655534       0x10 /opt/xmingw/lib/gcc-lib/i386-mingw32msvc/3.3.1/../../../../i386-mingw32msvc/lib/libkernel32.a(dmivbs00527.o)
 .idata$6       0x6d655544       0x10 /opt/xmingw/lib/gcc-lib/i386-mingw32msvc/3.3.1/../../../../i386-mingw32msvc/lib/libkernel32.a(dmivbs00541.o)
 .idata$6       0x6d655554        0xc /opt/xmingw/lib/gcc-lib/i386-mingw32msvc/3.3.1/../../../../i386-mingw32msvc/lib/libkernel32.a(dmivbs00613.o)
 .idata$6       0x6d655560       0x10 /opt/xmingw/lib/gcc-lib/i386-mingw32msvc/3.3.1/../../../../i386-mingw32msvc/lib/libkernel32.a(dmivbs00690.o)
 .idata$6       0x6d655570       0x12 /opt/xmingw/lib/gcc-lib/i386-mingw32msvc/3.3.1/../../../../i386-mingw32msvc/lib/libkernel32.a(dmivbs00699.o)
 *fill*         0x6d655582        0x2 00
 .idata$6       0x6d655584       0x12 /opt/xmingw/lib/gcc-lib/i386-mingw32msvc/3.3.1/../../../../i386-mingw32msvc/lib/libkernel32.a(dmivbs00746.o)
 *fill*         0x6d655596        0x2 00
 .idata$6       0x6d655598       0x12 /opt/xmingw/lib/gcc-lib/i386-mingw32msvc/3.3.1/../../../../i386-mingw32msvc/lib/libkernel32.a(dmivbs00776.o)
 *fill*         0x6d6555aa        0x2 00
 .idata$6       0x6d6555ac        0xc /opt/xmingw/lib/gcc-lib/i386-mingw32msvc/3.3.1/../../../../i386-mingw32msvc/lib/libkernel32.a(dmivbs00822.o)
 .idata$6       0x6d6555b8        0xe /opt/xmingw/lib/gcc-lib/i386-mingw32msvc/3.3.1/../../../../i386-mingw32msvc/lib/libmsvcrt.a(dzncs00036.o)
 *fill*         0x6d6555c6        0x2 00
 .idata$6       0x6d6555c8       0x10 /opt/xmingw/lib/gcc-lib/i386-mingw32msvc/3.3.1/../../../../i386-mingw32msvc/lib/libmsvcrt.a(dzncs00047.o)
 .idata$6       0x6d6555d8        0xa /opt/xmingw/lib/gcc-lib/i386-mingw32msvc/3.3.1/../../../../i386-mingw32msvc/lib/libmsvcrt.a(dzncs00147.o)
 *fill*         0x6d6555e2        0x2 00
 .idata$6       0x6d6555e4        0xa /opt/xmingw/lib/gcc-lib/i386-mingw32msvc/3.3.1/../../../../i386-mingw32msvc/lib/libmsvcrt.a(dzncs00176.o)
 *fill*         0x6d6555ee        0x2 00
 .idata$6       0x6d6555f0        0x8 /opt/xmingw/lib/gcc-lib/i386-mingw32msvc/3.3.1/../../../../i386-mingw32msvc/lib/libmsvcrt.a(dzncs00222.o)
 .idata$6       0x6d6555f8        0xc /opt/xmingw/lib/gcc-lib/i386-mingw32msvc/3.3.1/../../../../i386-mingw32msvc/lib/libmsvcrt.a(dzncs00224.o)
 .idata$6       0x6d655604        0xa /opt/xmingw/lib/gcc-lib/i386-mingw32msvc/3.3.1/../../../../i386-mingw32msvc/lib/libmsvcrt.a(dzncs00344.o)
 *fill*         0x6d65560e        0x2 00
 .idata$6       0x6d655610        0xc /opt/xmingw/lib/gcc-lib/i386-mingw32msvc/3.3.1/../../../../i386-mingw32msvc/lib/libmsvcrt.a(dzncs00395.o)
 .idata$6       0x6d65561c        0x8 /opt/xmingw/lib/gcc-lib/i386-mingw32msvc/3.3.1/../../../../i386-mingw32msvc/lib/libmsvcrt.a(dzncs00510.o)
 .idata$6       0x6d655624        0x8 /opt/xmingw/lib/gcc-lib/i386-mingw32msvc/3.3.1/../../../../i386-mingw32msvc/lib/libmsvcrt.a(dzncs00516.o)
 .idata$6       0x6d65562c        0x8 /opt/xmingw/lib/gcc-lib/i386-mingw32msvc/3.3.1/../../../../i386-mingw32msvc/lib/libmsvcrt.a(dzncs00519.o)
 .idata$6       0x6d655634        0x6 /opt/xmingw/lib/gcc-lib/i386-mingw32msvc/3.3.1/../../../../i386-mingw32msvc/lib/libmsvcrt.a(dzncs00526.o)
 *fill*         0x6d65563a        0x2 00
 .idata$6       0x6d65563c        0x8 /opt/xmingw/lib/gcc-lib/i386-mingw32msvc/3.3.1/../../../../i386-mingw32msvc/lib/libmsvcrt.a(dzncs00531.o)
 .idata$6       0x6d655644        0xa /opt/xmingw/lib/gcc-lib/i386-mingw32msvc/3.3.1/../../../../i386-mingw32msvc/lib/libmsvcrt.a(dzncs00537.o)
 *fill*         0x6d65564e        0x2 00
 .idata$6       0x6d655650        0x8 /opt/xmingw/lib/gcc-lib/i386-mingw32msvc/3.3.1/../../../../i386-mingw32msvc/lib/libmsvcrt.a(dzncs00543.o)
 .idata$6       0x6d655658        0xa /opt/xmingw/lib/gcc-lib/i386-mingw32msvc/3.3.1/../../../../i386-mingw32msvc/lib/libmsvcrt.a(dzncs00546.o)
 *fill*         0x6d655662        0x2 00
 .idata$6       0x6d655664        0x8 /opt/xmingw/lib/gcc-lib/i386-mingw32msvc/3.3.1/../../../../i386-mingw32msvc/lib/libmsvcrt.a(dzncs00552.o)
 .idata$6       0x6d65566c        0x8 /opt/xmingw/lib/gcc-lib/i386-mingw32msvc/3.3.1/../../../../i386-mingw32msvc/lib/libmsvcrt.a(dzncs00554.o)
 .idata$6       0x6d655674        0x8 /opt/xmingw/lib/gcc-lib/i386-mingw32msvc/3.3.1/../../../../i386-mingw32msvc/lib/libmsvcrt.a(dzncs00596.o)
 .idata$6       0x6d65567c        0xa /opt/xmingw/lib/gcc-lib/i386-mingw32msvc/3.3.1/../../../../i386-mingw32msvc/lib/libmsvcrt.a(dzncs00603.o)
 *fill*         0x6d655686        0x2 00
 .idata$6       0x6d655688        0xa /opt/xmingw/lib/gcc-lib/i386-mingw32msvc/3.3.1/../../../../i386-mingw32msvc/lib/libmsvcrt.a(dzncs00609.o)
 *fill*         0x6d655692        0x2 00
 .idata$6       0x6d655694        0xa /opt/xmingw/lib/gcc-lib/i386-mingw32msvc/3.3.1/../../../../i386-mingw32msvc/lib/libmsvcrt.a(dzncs00610.o)
 *fill*         0x6d65569e        0x2 00
 .idata$6       0x6d6556a0        0xa /opt/xmingw/lib/gcc-lib/i386-mingw32msvc/3.3.1/../../../../i386-mingw32msvc/lib/libmsvcrt.a(dzncs00611.o)
 *fill*         0x6d6556aa        0x2 00
 .idata$6       0x6d6556ac        0xa /opt/xmingw/lib/gcc-lib/i386-mingw32msvc/3.3.1/../../../../i386-mingw32msvc/lib/libmsvcrt.a(dzncs00616.o)
 *fill*         0x6d6556b6        0x2 00
 .idata$6       0x6d6556b8        0x8 /opt/xmingw/lib/gcc-lib/i386-mingw32msvc/3.3.1/../../../../i386-mingw32msvc/lib/libmsvcrt.a(dzncs00619.o)
 .idata$6       0x6d6556c0        0x8 /opt/xmingw/lib/gcc-lib/i386-mingw32msvc/3.3.1/../../../../i386-mingw32msvc/lib/libmsvcrt.a(dzncs00624.o)
 .idata$6       0x6d6556c8        0xa /opt/xmingw/lib/gcc-lib/i386-mingw32msvc/3.3.1/../../../../i386-mingw32msvc/lib/libmsvcrt.a(dzncs00625.o)
 *fill*         0x6d6556d2        0x2 00
 .idata$6       0x6d6556d4        0x6 /opt/xmingw/lib/gcc-lib/i386-mingw32msvc/3.3.1/../../../../i386-mingw32msvc/lib/libmsvcrt.a(dzncs00634.o)
 *fill*         0x6d6556da        0x2 00
 .idata$6       0x6d6556dc        0xa /opt/xmingw/lib/gcc-lib/i386-mingw32msvc/3.3.1/../../../../i386-mingw32msvc/lib/libmsvcrt.a(dzncs00636.o)
 *fill*         0x6d6556e6        0x2 00
 .idata$6       0x6d6556e8        0x8 /opt/xmingw/lib/gcc-lib/i386-mingw32msvc/3.3.1/../../../../i386-mingw32msvc/lib/libmsvcrt.a(dzncs00638.o)
 .idata$6       0x6d6556f0        0xa /opt/xmingw/lib/gcc-lib/i386-mingw32msvc/3.3.1/../../../../i386-mingw32msvc/lib/libmsvcrt.a(dzncs00640.o)
 *fill*         0x6d6556fa        0x2 00
 .idata$6       0x6d6556fc        0xa /opt/xmingw/lib/gcc-lib/i386-mingw32msvc/3.3.1/../../../../i386-mingw32msvc/lib/libmsvcrt.a(dzncs00642.o)
 *fill*         0x6d655706        0x2 00
 .idata$6       0x6d655708        0xa /opt/xmingw/lib/gcc-lib/i386-mingw32msvc/3.3.1/../../../../i386-mingw32msvc/lib/libmsvcrt.a(dzncs00644.o)
 *fill*         0x6d655712        0x2 00
 .idata$6       0x6d655714        0xa /opt/xmingw/lib/gcc-lib/i386-mingw32msvc/3.3.1/../../../../i386-mingw32msvc/lib/libmsvcrt.a(dzncs00648.o)
 *fill*         0x6d65571e        0x2 00
 .idata$6       0x6d655720        0xa /opt/xmingw/lib/gcc-lib/i386-mingw32msvc/3.3.1/../../../../i386-mingw32msvc/lib/libmsvcrt.a(dzncs00670.o)
 *fill*         0x6d65572a        0x2 00
 .idata$6       0x6d65572c       0x12 /opt/xmingw/lib/gcc-lib/i386-mingw32msvc/3.3.1/../../../../i386-mingw32msvc/lib/libuser32.a(dynvbs00053.o)
 *fill*         0x6d65573e        0x2 00
 .idata$6       0x6d655740       0x12 /opt/xmingw/lib/gcc-lib/i386-mingw32msvc/3.3.1/../../../../i386-mingw32msvc/lib/libuser32.a(dynvbs00146.o)
 *fill*         0x6d655752        0x2 00
 .idata$6       0x6d655754       0x10 /opt/xmingw/lib/gcc-lib/i386-mingw32msvc/3.3.1/../../../../i386-mingw32msvc/lib/libuser32.a(dynvbs00179.o)
 .idata$6       0x6d655764        0xc /opt/xmingw/lib/gcc-lib/i386-mingw32msvc/3.3.1/../../../../i386-mingw32msvc/lib/libuser32.a(dynvbs00181.o)
 .idata$6       0x6d655770       0x10 /opt/xmingw/lib/gcc-lib/i386-mingw32msvc/3.3.1/../../../../i386-mingw32msvc/lib/libuser32.a(dynvbs00235.o)
 .idata$6       0x6d655780       0x10 /opt/xmingw/lib/gcc-lib/i386-mingw32msvc/3.3.1/../../../../i386-mingw32msvc/lib/libuser32.a(dynvbs00246.o)
 .idata$6       0x6d655790        0x8 /opt/xmingw/lib/gcc-lib/i386-mingw32msvc/3.3.1/../../../../i386-mingw32msvc/lib/libuser32.a(dynvbs00247.o)
 .idata$6       0x6d655798       0x14 /opt/xmingw/lib/gcc-lib/i386-mingw32msvc/3.3.1/../../../../i386-mingw32msvc/lib/libuser32.a(dynvbs00249.o)
 .idata$6       0x6d6557ac       0x10 /opt/xmingw/lib/gcc-lib/i386-mingw32msvc/3.3.1/../../../../i386-mingw32msvc/lib/libuser32.a(dynvbs00251.o)
 .idata$6       0x6d6557bc        0xe /opt/xmingw/lib/gcc-lib/i386-mingw32msvc/3.3.1/../../../../i386-mingw32msvc/lib/libuser32.a(dynvbs00252.o)
 *fill*         0x6d6557ca        0x2 00
 .idata$6       0x6d6557cc       0x10 /opt/xmingw/lib/gcc-lib/i386-mingw32msvc/3.3.1/../../../../i386-mingw32msvc/lib/libuser32.a(dynvbs00253.o)
 .idata$6       0x6d6557dc       0x12 /opt/xmingw/lib/gcc-lib/i386-mingw32msvc/3.3.1/../../../../i386-mingw32msvc/lib/libuser32.a(dynvbs00254.o)
 *fill*         0x6d6557ee        0x2 00
 .idata$6       0x6d6557f0       0x10 /opt/xmingw/lib/gcc-lib/i386-mingw32msvc/3.3.1/../../../../i386-mingw32msvc/lib/libuser32.a(dynvbs00346.o)
 .idata$6       0x6d655800       0x16 /opt/xmingw/lib/gcc-lib/i386-mingw32msvc/3.3.1/../../../../i386-mingw32msvc/lib/libuser32.a(dynvbs00383.o)
 *fill*         0x6d655816        0x2 00
 .idata$6       0x6d655818        0xe /opt/xmingw/lib/gcc-lib/i386-mingw32msvc/3.3.1/../../../../i386-mingw32msvc/lib/libuser32.a(dynvbs00429.o)
 *fill*         0x6d655826        0x2 00
 .idata$6       0x6d655828        0xe /opt/xmingw/lib/gcc-lib/i386-mingw32msvc/3.3.1/../../../../i386-mingw32msvc/lib/libuser32.a(dynvbs00430.o)
 *fill*         0x6d655836        0x2 00
 .idata$6       0x6d655838        0xe /opt/xmingw/lib/gcc-lib/i386-mingw32msvc/3.3.1/../../../../i386-mingw32msvc/lib/libuser32.a(dynvbs00438.o)
 *fill*         0x6d655846        0x2 00
 .idata$6       0x6d655848       0x12 /opt/xmingw/lib/gcc-lib/i386-mingw32msvc/3.3.1/../../../../i386-mingw32msvc/lib/libuser32.a(dynvbs00482.o)
 *fill*         0x6d65585a        0x2 00
 .idata$6       0x6d65585c        0xc /opt/xmingw/lib/gcc-lib/i386-mingw32msvc/3.3.1/../../../../i386-mingw32msvc/lib/libuser32.a(dynvbs00483.o)
 .idata$6       0x6d655868       0x16 /opt/xmingw/lib/gcc-lib/i386-mingw32msvc/3.3.1/../../../../i386-mingw32msvc/lib/libuser32.a(dynvbs00494.o)
 *fill*         0x6d65587e        0x2 00
 .idata$6       0x6d655880        0xe /opt/xmingw/lib/gcc-lib/i386-mingw32msvc/3.3.1/../../../../i386-mingw32msvc/lib/libuser32.a(dynvbs00506.o)
 *fill*         0x6d65588e        0x2 00
 .idata$6       0x6d655890       0x10 /opt/xmingw/lib/gcc-lib/i386-mingw32msvc/3.3.1/../../../../i386-mingw32msvc/lib/libuser32.a(dynvbs00518.o)
 .idata$6       0x6d6558a0       0x12 /opt/xmingw/lib/gcc-lib/i386-mingw32msvc/3.3.1/../../../../i386-mingw32msvc/lib/libuser32.a(dynvbs00519.o)
 *fill*         0x6d6558b2        0x2 00
 .idata$6       0x6d6558b4        0xc /opt/xmingw/lib/gcc-lib/i386-mingw32msvc/3.3.1/../../../../i386-mingw32msvc/lib/libuser32.a(dynvbs00522.o)
 .idata$6       0x6d6558c0        0xe /opt/xmingw/lib/gcc-lib/i386-mingw32msvc/3.3.1/../../../../i386-mingw32msvc/lib/libuser32.a(dynvbs00574.o)
 SORT(*)(.idata$7)
 *fill*         0x6d6558ce        0x2 00
 .idata$7       0x6d6558d0        0x4 /opt/xmingw/lib/gcc-lib/i386-mingw32msvc/3.3.1/../../../../i386-mingw32msvc/lib/libcomdlg32.a(dkfvbs00009.o)
 .idata$7       0x6d6558d4        0x4 /opt/xmingw/lib/gcc-lib/i386-mingw32msvc/3.3.1/../../../../i386-mingw32msvc/lib/libcomdlg32.a(dkfvbs00011.o)
 .idata$7       0x6d6558d8       0x10 /opt/xmingw/lib/gcc-lib/i386-mingw32msvc/3.3.1/../../../../i386-mingw32msvc/lib/libcomdlg32.a(dkfvbt.o)
                0x6d6558d8                _libcomdlg32_a_iname
 .idata$7       0x6d6558e8        0x4 /opt/xmingw/lib/gcc-lib/i386-mingw32msvc/3.3.1/../../../../i386-mingw32msvc/lib/libgdi32.a(dihvbs00038.o)
 .idata$7       0x6d6558ec        0x4 /opt/xmingw/lib/gcc-lib/i386-mingw32msvc/3.3.1/../../../../i386-mingw32msvc/lib/libgdi32.a(dihvbs00072.o)
 .idata$7       0x6d6558f0        0x4 /opt/xmingw/lib/gcc-lib/i386-mingw32msvc/3.3.1/../../../../i386-mingw32msvc/lib/libgdi32.a(dihvbs00195.o)
 .idata$7       0x6d6558f4        0xc /opt/xmingw/lib/gcc-lib/i386-mingw32msvc/3.3.1/../../../../i386-mingw32msvc/lib/libgdi32.a(dihvbt.o)
                0x6d6558f4                _libgdi32_a_iname
 .idata$7       0x6d655900        0x4 /opt/xmingw/lib/gcc-lib/i386-mingw32msvc/3.3.1/../../../../i386-mingw32msvc/lib/libkernel32.a(dmivbs00001.o)
 .idata$7       0x6d655904        0x4 /opt/xmingw/lib/gcc-lib/i386-mingw32msvc/3.3.1/../../../../i386-mingw32msvc/lib/libkernel32.a(dmivbs00019.o)
 .idata$7       0x6d655908        0x4 /opt/xmingw/lib/gcc-lib/i386-mingw32msvc/3.3.1/../../../../i386-mingw32msvc/lib/libkernel32.a(dmivbs00038.o)
 .idata$7       0x6d65590c        0x4 /opt/xmingw/lib/gcc-lib/i386-mingw32msvc/3.3.1/../../../../i386-mingw32msvc/lib/libkernel32.a(dmivbs00053.o)
 .idata$7       0x6d655910        0x4 /opt/xmingw/lib/gcc-lib/i386-mingw32msvc/3.3.1/../../../../i386-mingw32msvc/lib/libkernel32.a(dmivbs00068.o)
 .idata$7       0x6d655914        0x4 /opt/xmingw/lib/gcc-lib/i386-mingw32msvc/3.3.1/../../../../i386-mingw32msvc/lib/libkernel32.a(dmivbs00108.o)
 .idata$7       0x6d655918        0x4 /opt/xmingw/lib/gcc-lib/i386-mingw32msvc/3.3.1/../../../../i386-mingw32msvc/lib/libkernel32.a(dmivbs00123.o)
 .idata$7       0x6d65591c        0x4 /opt/xmingw/lib/gcc-lib/i386-mingw32msvc/3.3.1/../../../../i386-mingw32msvc/lib/libkernel32.a(dmivbs00175.o)
 .idata$7       0x6d655920        0x4 /opt/xmingw/lib/gcc-lib/i386-mingw32msvc/3.3.1/../../../../i386-mingw32msvc/lib/libkernel32.a(dmivbs00196.o)
 .idata$7       0x6d655924        0x4 /opt/xmingw/lib/gcc-lib/i386-mingw32msvc/3.3.1/../../../../i386-mingw32msvc/lib/libkernel32.a(dmivbs00208.o)
 .idata$7       0x6d655928        0x4 /opt/xmingw/lib/gcc-lib/i386-mingw32msvc/3.3.1/../../../../i386-mingw32msvc/lib/libkernel32.a(dmivbs00213.o)
 .idata$7       0x6d65592c        0x4 /opt/xmingw/lib/gcc-lib/i386-mingw32msvc/3.3.1/../../../../i386-mingw32msvc/lib/libkernel32.a(dmivbs00220.o)
 .idata$7       0x6d655930        0x4 /opt/xmingw/lib/gcc-lib/i386-mingw32msvc/3.3.1/../../../../i386-mingw32msvc/lib/libkernel32.a(dmivbs00311.o)
 .idata$7       0x6d655934        0x4 /opt/xmingw/lib/gcc-lib/i386-mingw32msvc/3.3.1/../../../../i386-mingw32msvc/lib/libkernel32.a(dmivbs00323.o)
 .idata$7       0x6d655938        0x4 /opt/xmingw/lib/gcc-lib/i386-mingw32msvc/3.3.1/../../../../i386-mingw32msvc/lib/libkernel32.a(dmivbs00333.o)
 .idata$7       0x6d65593c        0x4 /opt/xmingw/lib/gcc-lib/i386-mingw32msvc/3.3.1/../../../../i386-mingw32msvc/lib/libkernel32.a(dmivbs00421.o)
 .idata$7       0x6d655940        0x4 /opt/xmingw/lib/gcc-lib/i386-mingw32msvc/3.3.1/../../../../i386-mingw32msvc/lib/libkernel32.a(dmivbs00431.o)
 .idata$7       0x6d655944        0x4 /opt/xmingw/lib/gcc-lib/i386-mingw32msvc/3.3.1/../../../../i386-mingw32msvc/lib/libkernel32.a(dmivbs00523.o)
 .idata$7       0x6d655948        0x4 /opt/xmingw/lib/gcc-lib/i386-mingw32msvc/3.3.1/../../../../i386-mingw32msvc/lib/libkernel32.a(dmivbs00527.o)
 .idata$7       0x6d65594c        0x4 /opt/xmingw/lib/gcc-lib/i386-mingw32msvc/3.3.1/../../../../i386-mingw32msvc/lib/libkernel32.a(dmivbs00541.o)
 .idata$7       0x6d655950        0x4 /opt/xmingw/lib/gcc-lib/i386-mingw32msvc/3.3.1/../../../../i386-mingw32msvc/lib/libkernel32.a(dmivbs00613.o)
 .idata$7       0x6d655954        0x4 /opt/xmingw/lib/gcc-lib/i386-mingw32msvc/3.3.1/../../../../i386-mingw32msvc/lib/libkernel32.a(dmivbs00690.o)
 .idata$7       0x6d655958        0x4 /opt/xmingw/lib/gcc-lib/i386-mingw32msvc/3.3.1/../../../../i386-mingw32msvc/lib/libkernel32.a(dmivbs00699.o)
 .idata$7       0x6d65595c        0x4 /opt/xmingw/lib/gcc-lib/i386-mingw32msvc/3.3.1/../../../../i386-mingw32msvc/lib/libkernel32.a(dmivbs00746.o)
 .idata$7       0x6d655960        0x4 /opt/xmingw/lib/gcc-lib/i386-mingw32msvc/3.3.1/../../../../i386-mingw32msvc/lib/libkernel32.a(dmivbs00776.o)
 .idata$7       0x6d655964        0x4 /opt/xmingw/lib/gcc-lib/i386-mingw32msvc/3.3.1/../../../../i386-mingw32msvc/lib/libkernel32.a(dmivbs00822.o)
 .idata$7       0x6d655968       0x10 /opt/xmingw/lib/gcc-lib/i386-mingw32msvc/3.3.1/../../../../i386-mingw32msvc/lib/libkernel32.a(dmivbt.o)
                0x6d655968                _libkernel32_a_iname
 .idata$7       0x6d655978        0x4 /opt/xmingw/lib/gcc-lib/i386-mingw32msvc/3.3.1/../../../../i386-mingw32msvc/lib/libmsvcrt.a(dzncs00036.o)
 .idata$7       0x6d65597c        0x4 /opt/xmingw/lib/gcc-lib/i386-mingw32msvc/3.3.1/../../../../i386-mingw32msvc/lib/libmsvcrt.a(dzncs00047.o)
 .idata$7       0x6d655980        0x4 /opt/xmingw/lib/gcc-lib/i386-mingw32msvc/3.3.1/../../../../i386-mingw32msvc/lib/libmsvcrt.a(dzncs00147.o)
 .idata$7       0x6d655984        0x4 /opt/xmingw/lib/gcc-lib/i386-mingw32msvc/3.3.1/../../../../i386-mingw32msvc/lib/libmsvcrt.a(dzncs00176.o)
 .idata$7       0x6d655988        0x4 /opt/xmingw/lib/gcc-lib/i386-mingw32msvc/3.3.1/../../../../i386-mingw32msvc/lib/libmsvcrt.a(dzncs00222.o)
 .idata$7       0x6d65598c        0x4 /opt/xmingw/lib/gcc-lib/i386-mingw32msvc/3.3.1/../../../../i386-mingw32msvc/lib/libmsvcrt.a(dzncs00224.o)
 .idata$7       0x6d655990        0x4 /opt/xmingw/lib/gcc-lib/i386-mingw32msvc/3.3.1/../../../../i386-mingw32msvc/lib/libmsvcrt.a(dzncs00344.o)
 .idata$7       0x6d655994        0x4 /opt/xmingw/lib/gcc-lib/i386-mingw32msvc/3.3.1/../../../../i386-mingw32msvc/lib/libmsvcrt.a(dzncs00395.o)
 .idata$7       0x6d655998        0x4 /opt/xmingw/lib/gcc-lib/i386-mingw32msvc/3.3.1/../../../../i386-mingw32msvc/lib/libmsvcrt.a(dzncs00510.o)
 .idata$7       0x6d65599c        0x4 /opt/xmingw/lib/gcc-lib/i386-mingw32msvc/3.3.1/../../../../i386-mingw32msvc/lib/libmsvcrt.a(dzncs00516.o)
 .idata$7       0x6d6559a0        0x4 /opt/xmingw/lib/gcc-lib/i386-mingw32msvc/3.3.1/../../../../i386-mingw32msvc/lib/libmsvcrt.a(dzncs00519.o)
 .idata$7       0x6d6559a4        0x4 /opt/xmingw/lib/gcc-lib/i386-mingw32msvc/3.3.1/../../../../i386-mingw32msvc/lib/libmsvcrt.a(dzncs00526.o)
 .idata$7       0x6d6559a8        0x4 /opt/xmingw/lib/gcc-lib/i386-mingw32msvc/3.3.1/../../../../i386-mingw32msvc/lib/libmsvcrt.a(dzncs00531.o)
 .idata$7       0x6d6559ac        0x4 /opt/xmingw/lib/gcc-lib/i386-mingw32msvc/3.3.1/../../../../i386-mingw32msvc/lib/libmsvcrt.a(dzncs00537.o)
 .idata$7       0x6d6559b0        0x4 /opt/xmingw/lib/gcc-lib/i386-mingw32msvc/3.3.1/../../../../i386-mingw32msvc/lib/libmsvcrt.a(dzncs00543.o)
 .idata$7       0x6d6559b4        0x4 /opt/xmingw/lib/gcc-lib/i386-mingw32msvc/3.3.1/../../../../i386-mingw32msvc/lib/libmsvcrt.a(dzncs00546.o)
 .idata$7       0x6d6559b8        0x4 /opt/xmingw/lib/gcc-lib/i386-mingw32msvc/3.3.1/../../../../i386-mingw32msvc/lib/libmsvcrt.a(dzncs00552.o)
 .idata$7       0x6d6559bc        0x4 /opt/xmingw/lib/gcc-lib/i386-mingw32msvc/3.3.1/../../../../i386-mingw32msvc/lib/libmsvcrt.a(dzncs00554.o)
 .idata$7       0x6d6559c0        0x4 /opt/xmingw/lib/gcc-lib/i386-mingw32msvc/3.3.1/../../../../i386-mingw32msvc/lib/libmsvcrt.a(dzncs00596.o)
 .idata$7       0x6d6559c4        0x4 /opt/xmingw/lib/gcc-lib/i386-mingw32msvc/3.3.1/../../../../i386-mingw32msvc/lib/libmsvcrt.a(dzncs00603.o)
 .idata$7       0x6d6559c8        0x4 /opt/xmingw/lib/gcc-lib/i386-mingw32msvc/3.3.1/../../../../i386-mingw32msvc/lib/libmsvcrt.a(dzncs00609.o)
 .idata$7       0x6d6559cc        0x4 /opt/xmingw/lib/gcc-lib/i386-mingw32msvc/3.3.1/../../../../i386-mingw32msvc/lib/libmsvcrt.a(dzncs00610.o)
 .idata$7       0x6d6559d0        0x4 /opt/xmingw/lib/gcc-lib/i386-mingw32msvc/3.3.1/../../../../i386-mingw32msvc/lib/libmsvcrt.a(dzncs00611.o)
 .idata$7       0x6d6559d4        0x4 /opt/xmingw/lib/gcc-lib/i386-mingw32msvc/3.3.1/../../../../i386-mingw32msvc/lib/libmsvcrt.a(dzncs00616.o)
 .idata$7       0x6d6559d8        0x4 /opt/xmingw/lib/gcc-lib/i386-mingw32msvc/3.3.1/../../../../i386-mingw32msvc/lib/libmsvcrt.a(dzncs00619.o)
 .idata$7       0x6d6559dc        0x4 /opt/xmingw/lib/gcc-lib/i386-mingw32msvc/3.3.1/../../../../i386-mingw32msvc/lib/libmsvcrt.a(dzncs00624.o)
 .idata$7       0x6d6559e0        0x4 /opt/xmingw/lib/gcc-lib/i386-mingw32msvc/3.3.1/../../../../i386-mingw32msvc/lib/libmsvcrt.a(dzncs00625.o)
 .idata$7       0x6d6559e4        0x4 /opt/xmingw/lib/gcc-lib/i386-mingw32msvc/3.3.1/../../../../i386-mingw32msvc/lib/libmsvcrt.a(dzncs00634.o)
 .idata$7       0x6d6559e8        0x4 /opt/xmingw/lib/gcc-lib/i386-mingw32msvc/3.3.1/../../../../i386-mingw32msvc/lib/libmsvcrt.a(dzncs00636.o)
 .idata$7       0x6d6559ec        0x4 /opt/xmingw/lib/gcc-lib/i386-mingw32msvc/3.3.1/../../../../i386-mingw32msvc/lib/libmsvcrt.a(dzncs00638.o)
 .idata$7       0x6d6559f0        0x4 /opt/xmingw/lib/gcc-lib/i386-mingw32msvc/3.3.1/../../../../i386-mingw32msvc/lib/libmsvcrt.a(dzncs00640.o)
 .idata$7       0x6d6559f4        0x4 /opt/xmingw/lib/gcc-lib/i386-mingw32msvc/3.3.1/../../../../i386-mingw32msvc/lib/libmsvcrt.a(dzncs00642.o)
 .idata$7       0x6d6559f8        0x4 /opt/xmingw/lib/gcc-lib/i386-mingw32msvc/3.3.1/../../../../i386-mingw32msvc/lib/libmsvcrt.a(dzncs00644.o)
 .idata$7       0x6d6559fc        0x4 /opt/xmingw/lib/gcc-lib/i386-mingw32msvc/3.3.1/../../../../i386-mingw32msvc/lib/libmsvcrt.a(dzncs00648.o)
 .idata$7       0x6d655a00        0x4 /opt/xmingw/lib/gcc-lib/i386-mingw32msvc/3.3.1/../../../../i386-mingw32msvc/lib/libmsvcrt.a(dzncs00670.o)
 .idata$7       0x6d655a04        0xc /opt/xmingw/lib/gcc-lib/i386-mingw32msvc/3.3.1/../../../../i386-mingw32msvc/lib/libmsvcrt.a(dznct.o)
                0x6d655a04                _libmsvcrt_a_iname
 .idata$7       0x6d655a10        0x4 /opt/xmingw/lib/gcc-lib/i386-mingw32msvc/3.3.1/../../../../i386-mingw32msvc/lib/libuser32.a(dynvbs00053.o)
 .idata$7       0x6d655a14        0x4 /opt/xmingw/lib/gcc-lib/i386-mingw32msvc/3.3.1/../../../../i386-mingw32msvc/lib/libuser32.a(dynvbs00146.o)
 .idata$7       0x6d655a18        0x4 /opt/xmingw/lib/gcc-lib/i386-mingw32msvc/3.3.1/../../../../i386-mingw32msvc/lib/libuser32.a(dynvbs00179.o)
 .idata$7       0x6d655a1c        0x4 /opt/xmingw/lib/gcc-lib/i386-mingw32msvc/3.3.1/../../../../i386-mingw32msvc/lib/libuser32.a(dynvbs00181.o)
 .idata$7       0x6d655a20        0x4 /opt/xmingw/lib/gcc-lib/i386-mingw32msvc/3.3.1/../../../../i386-mingw32msvc/lib/libuser32.a(dynvbs00235.o)
 .idata$7       0x6d655a24        0x4 /opt/xmingw/lib/gcc-lib/i386-mingw32msvc/3.3.1/../../../../i386-mingw32msvc/lib/libuser32.a(dynvbs00246.o)
 .idata$7       0x6d655a28        0x4 /opt/xmingw/lib/gcc-lib/i386-mingw32msvc/3.3.1/../../../../i386-mingw32msvc/lib/libuser32.a(dynvbs00247.o)
 .idata$7       0x6d655a2c        0x4 /opt/xmingw/lib/gcc-lib/i386-mingw32msvc/3.3.1/../../../../i386-mingw32msvc/lib/libuser32.a(dynvbs00249.o)
 .idata$7       0x6d655a30        0x4 /opt/xmingw/lib/gcc-lib/i386-mingw32msvc/3.3.1/../../../../i386-mingw32msvc/lib/libuser32.a(dynvbs00251.o)
 .idata$7       0x6d655a34        0x4 /opt/xmingw/lib/gcc-lib/i386-mingw32msvc/3.3.1/../../../../i386-mingw32msvc/lib/libuser32.a(dynvbs00252.o)
 .idata$7       0x6d655a38        0x4 /opt/xmingw/lib/gcc-lib/i386-mingw32msvc/3.3.1/../../../../i386-mingw32msvc/lib/libuser32.a(dynvbs00253.o)
 .idata$7       0x6d655a3c        0x4 /opt/xmingw/lib/gcc-lib/i386-mingw32msvc/3.3.1/../../../../i386-mingw32msvc/lib/libuser32.a(dynvbs00254.o)
 .idata$7       0x6d655a40        0x4 /opt/xmingw/lib/gcc-lib/i386-mingw32msvc/3.3.1/../../../../i386-mingw32msvc/lib/libuser32.a(dynvbs00346.o)
 .idata$7       0x6d655a44        0x4 /opt/xmingw/lib/gcc-lib/i386-mingw32msvc/3.3.1/../../../../i386-mingw32msvc/lib/libuser32.a(dynvbs00383.o)
 .idata$7       0x6d655a48        0x4 /opt/xmingw/lib/gcc-lib/i386-mingw32msvc/3.3.1/../../../../i386-mingw32msvc/lib/libuser32.a(dynvbs00429.o)
 .idata$7       0x6d655a4c        0x4 /opt/xmingw/lib/gcc-lib/i386-mingw32msvc/3.3.1/../../../../i386-mingw32msvc/lib/libuser32.a(dynvbs00430.o)
 .idata$7       0x6d655a50        0x4 /opt/xmingw/lib/gcc-lib/i386-mingw32msvc/3.3.1/../../../../i386-mingw32msvc/lib/libuser32.a(dynvbs00438.o)
 .idata$7       0x6d655a54        0x4 /opt/xmingw/lib/gcc-lib/i386-mingw32msvc/3.3.1/../../../../i386-mingw32msvc/lib/libuser32.a(dynvbs00482.o)
 .idata$7       0x6d655a58        0x4 /opt/xmingw/lib/gcc-lib/i386-mingw32msvc/3.3.1/../../../../i386-mingw32msvc/lib/libuser32.a(dynvbs00483.o)
 .idata$7       0x6d655a5c        0x4 /opt/xmingw/lib/gcc-lib/i386-mingw32msvc/3.3.1/../../../../i386-mingw32msvc/lib/libuser32.a(dynvbs00494.o)
 .idata$7       0x6d655a60        0x4 /opt/xmingw/lib/gcc-lib/i386-mingw32msvc/3.3.1/../../../../i386-mingw32msvc/lib/libuser32.a(dynvbs00506.o)
 .idata$7       0x6d655a64        0x4 /opt/xmingw/lib/gcc-lib/i386-mingw32msvc/3.3.1/../../../../i386-mingw32msvc/lib/libuser32.a(dynvbs00518.o)
 .idata$7       0x6d655a68        0x4 /opt/xmingw/lib/gcc-lib/i386-mingw32msvc/3.3.1/../../../../i386-mingw32msvc/lib/libuser32.a(dynvbs00519.o)
 .idata$7       0x6d655a6c        0x4 /opt/xmingw/lib/gcc-lib/i386-mingw32msvc/3.3.1/../../../../i386-mingw32msvc/lib/libuser32.a(dynvbs00522.o)
 .idata$7       0x6d655a70        0x4 /opt/xmingw/lib/gcc-lib/i386-mingw32msvc/3.3.1/../../../../i386-mingw32msvc/lib/libuser32.a(dynvbs00574.o)
 .idata$7       0x6d655a74        0xc /opt/xmingw/lib/gcc-lib/i386-mingw32msvc/3.3.1/../../../../i386-mingw32msvc/lib/libuser32.a(dynvbt.o)
                0x6d655a74                _libuser32_a_iname

.CRT
 *(SORT(.CRT$*))

.endjunk        0x6d656000        0x0
                0x6d656000                PROVIDE (end, .)
                0x6d656000                PROVIDE (_end, .)
                0x6d656000                __end__ = .

.rsrc           0x6d656000     0x2800
 *(.rsrc)
 .rsrc          0x6d656000     0x270c res.o
 *(SORT(.rsrc$*))

.reloc          0x6d659000      0xe00
 *(.reloc)
 .reloc         0x6d659000      0xc78 dll stuff

.stab
 *(.stab)

.stabstr
 *(.stabstr)
OUTPUT(dist/FilterFoundry.8bf pei-i386)
LOAD dll stuff
Archive member included because of file (symbol)

/opt/xmingw/lib/gcc-lib/i386-mingw32msvc/3.3.1/../../../../i386-mingw32msvc/lib/libmingw32.a(gccmain.o)
                              /opt/xmingw/lib/gcc-lib/i386-mingw32msvc/3.3.1/../../../../i386-mingw32msvc/lib/dllcrt2.o (__main)
/opt/xmingw/lib/gcc-lib/i386-mingw32msvc/3.3.1/../../../../i386-mingw32msvc/lib/libmingw32.a(pseudo-reloc.o)
                              /opt/xmingw/lib/gcc-lib/i386-mingw32msvc/3.3.1/../../../../i386-mingw32msvc/lib/dllcrt2.o (_pei386_runtime_relocator)
/opt/xmingw/lib/gcc-lib/i386-mingw32msvc/3.3.1/../../../../i386-mingw32msvc/lib/libmingw32.a(pseudo-reloc-list.o)
                              /opt/xmingw/lib/gcc-lib/i386-mingw32msvc/3.3.1/../../../../i386-mingw32msvc/lib/libmingw32.a(pseudo-reloc.o) (__RUNTIME_PSEUDO_RELOC_LIST_END__)
/opt/xmingw/lib/gcc-lib/i386-mingw32msvc/3.3.1/libgcc.a(w32-shared-ptr.o)
                              /opt/xmingw/lib/gcc-lib/i386-mingw32msvc/3.3.1/crtbegin.o (__w32_sharedptr_initialize)
/opt/xmingw/lib/gcc-lib/i386-mingw32msvc/3.3.1/libgcc.a(_chkstk.o)
                              parser.o (_alloca)
/opt/xmingw/lib/gcc-lib/i386-mingw32msvc/3.3.1/libgcc.a(_ctors.o)
                              /opt/xmingw/lib/gcc-lib/i386-mingw32msvc/3.3.1/../../../../i386-mingw32msvc/lib/libmingw32.a(gccmain.o) (__CTOR_LIST__)
/opt/xmingw/lib/gcc-lib/i386-mingw32msvc/3.3.1/../../../../i386-mingw32msvc/lib/libmingwex.a(pow.o)
                              node.o (pow)
/opt/xmingw/lib/gcc-lib/i386-mingw32msvc/3.3.1/../../../../i386-mingw32msvc/lib/libmingwex.a(fp_consts.o)
                              /opt/xmingw/lib/gcc-lib/i386-mingw32msvc/3.3.1/../../../../i386-mingw32msvc/lib/libmingwex.a(pow.o) (__QNAN)
/opt/xmingw/lib/gcc-lib/i386-mingw32msvc/3.3.1/../../../../i386-mingw32msvc/lib/libmingwex.a(powi.o)
                              /opt/xmingw/lib/gcc-lib/i386-mingw32msvc/3.3.1/../../../../i386-mingw32msvc/lib/libmingwex.a(pow.o) (__powi)
/opt/xmingw/lib/gcc-lib/i386-mingw32msvc/3.3.1/../../../../i386-mingw32msvc/lib/libmingwex.a(signbit.o)
                              /opt/xmingw/lib/gcc-lib/i386-mingw32msvc/3.3.1/../../../../i386-mingw32msvc/lib/libmingwex.a(pow.o) (__signbit)
/opt/xmingw/lib/gcc-lib/i386-mingw32msvc/3.3.1/../../../../i386-mingw32msvc/lib/libmingwex.a(fpclassify.o)
                              /opt/xmingw/lib/gcc-lib/i386-mingw32msvc/3.3.1/../../../../i386-mingw32msvc/lib/libmingwex.a(pow.o) (__fpclassify)
/opt/xmingw/lib/gcc-lib/i386-mingw32msvc/3.3.1/../../../../i386-mingw32msvc/lib/libmingwex.a(isnan.o)
                              /opt/xmingw/lib/gcc-lib/i386-mingw32msvc/3.3.1/../../../../i386-mingw32msvc/lib/libmingwex.a(pow.o) (__isnan)
/opt/xmingw/lib/gcc-lib/i386-mingw32msvc/3.3.1/../../../../i386-mingw32msvc/lib/libmsvcrt.a(dzncs00036.o)
                              /opt/xmingw/lib/gcc-lib/i386-mingw32msvc/3.3.1/../../../../i386-mingw32msvc/lib/dllcrt2.o (__dllonexit)
/opt/xmingw/lib/gcc-lib/i386-mingw32msvc/3.3.1/../../../../i386-mingw32msvc/lib/libmsvcrt.a(dzncs00537.o)
                              /opt/xmingw/lib/gcc-lib/i386-mingw32msvc/3.3.1/../../../../i386-mingw32msvc/lib/dllcrt2.o (fflush)
/opt/xmingw/lib/gcc-lib/i386-mingw32msvc/3.3.1/../../../../i386-mingw32msvc/lib/libmsvcrt.a(dzncs00552.o)
                              /opt/xmingw/lib/gcc-lib/i386-mingw32msvc/3.3.1/../../../../i386-mingw32msvc/lib/dllcrt2.o (free)
/opt/xmingw/lib/gcc-lib/i386-mingw32msvc/3.3.1/../../../../i386-mingw32msvc/lib/libmsvcrt.a(dzncs00147.o)
                              /opt/xmingw/lib/gcc-lib/i386-mingw32msvc/3.3.1/../../../../i386-mingw32msvc/lib/dllcrt2.o (_errno)
/opt/xmingw/lib/gcc-lib/i386-mingw32msvc/3.3.1/../../../../i386-mingw32msvc/lib/libmsvcrt.a(dzncs00603.o)
                              /opt/xmingw/lib/gcc-lib/i386-mingw32msvc/3.3.1/../../../../i386-mingw32msvc/lib/dllcrt2.o (malloc)
/opt/xmingw/lib/gcc-lib/i386-mingw32msvc/3.3.1/../../../../i386-mingw32msvc/lib/libmsvcrt.a(dzncs00640.o)
                              ui_win.o (strcat)
/opt/xmingw/lib/gcc-lib/i386-mingw32msvc/3.3.1/../../../../i386-mingw32msvc/lib/libmsvcrt.a(dzncs00636.o)
                              ui_win.o (sprintf)
/opt/xmingw/lib/gcc-lib/i386-mingw32msvc/3.3.1/../../../../i386-mingw32msvc/lib/libmsvcrt.a(dzncs00648.o)
                              ui.o (strlen)
/opt/xmingw/lib/gcc-lib/i386-mingw32msvc/3.3.1/../../../../i386-mingw32msvc/lib/libmsvcrt.a(dzncs00644.o)
                              ui_build.o (strcpy)
/opt/xmingw/lib/gcc-lib/i386-mingw32msvc/3.3.1/../../../../i386-mingw32msvc/lib/libmsvcrt.a(dzncs00611.o)
                              preview.o (memset)
/opt/xmingw/lib/gcc-lib/i386-mingw32msvc/3.3.1/../../../../i386-mingw32msvc/lib/libmsvcrt.a(dzncs00638.o)
                              preview.o (srand)
/opt/xmingw/lib/gcc-lib/i386-mingw32msvc/3.3.1/../../../../i386-mingw32msvc/lib/libmsvcrt.a(dzncs00609.o)
                              read.o (memcpy)
/opt/xmingw/lib/gcc-lib/i386-mingw32msvc/3.3.1/../../../../i386-mingw32msvc/lib/libmsvcrt.a(dzncs00519.o)
                              read.o (atoi)
/opt/xmingw/lib/gcc-lib/i386-mingw32msvc/3.3.1/../../../../i386-mingw32msvc/lib/libmsvcrt.a(dzncs00222.o)
                              lexer.o (_imp___iob)
/opt/xmingw/lib/gcc-lib/i386-mingw32msvc/3.3.1/../../../../i386-mingw32msvc/lib/libmsvcrt.a(dzncs00625.o)
                              lexer.o (realloc)
/opt/xmingw/lib/gcc-lib/i386-mingw32msvc/3.3.1/../../../../i386-mingw32msvc/lib/libmsvcrt.a(dzncs00531.o)
                              lexer.o (exit)
/opt/xmingw/lib/gcc-lib/i386-mingw32msvc/3.3.1/../../../../i386-mingw32msvc/lib/libmsvcrt.a(dzncs00546.o)
                              lexer.o (fprintf)
/opt/xmingw/lib/gcc-lib/i386-mingw32msvc/3.3.1/../../../../i386-mingw32msvc/lib/libmsvcrt.a(dzncs00670.o)
                              lexer.o (toupper)
/opt/xmingw/lib/gcc-lib/i386-mingw32msvc/3.3.1/../../../../i386-mingw32msvc/lib/libmsvcrt.a(dzncs00047.o)
                              node.o (_imp____mb_cur_max)
/opt/xmingw/lib/gcc-lib/i386-mingw32msvc/3.3.1/../../../../i386-mingw32msvc/lib/libmsvcrt.a(dzncs00344.o)
                              node.o (_imp___pctype)
/opt/xmingw/lib/gcc-lib/i386-mingw32msvc/3.3.1/../../../../i386-mingw32msvc/lib/libmsvcrt.a(dzncs00616.o)
                              node.o (printf)
/opt/xmingw/lib/gcc-lib/i386-mingw32msvc/3.3.1/../../../../i386-mingw32msvc/lib/libmsvcrt.a(dzncs00619.o)
                              node.o (puts)
/opt/xmingw/lib/gcc-lib/i386-mingw32msvc/3.3.1/../../../../i386-mingw32msvc/lib/libmsvcrt.a(dzncs00224.o)
                              node.o (_isctype)
/opt/xmingw/lib/gcc-lib/i386-mingw32msvc/3.3.1/../../../../i386-mingw32msvc/lib/libmsvcrt.a(dzncs00176.o)
                              node.o (_flsbuf)
/opt/xmingw/lib/gcc-lib/i386-mingw32msvc/3.3.1/../../../../i386-mingw32msvc/lib/libmsvcrt.a(dzncs00642.o)
                              symtab.o (strcmp)
/opt/xmingw/lib/gcc-lib/i386-mingw32msvc/3.3.1/../../../../i386-mingw32msvc/lib/libmsvcrt.a(dzncs00516.o)
                              funcs.o (atan2)
/opt/xmingw/lib/gcc-lib/i386-mingw32msvc/3.3.1/../../../../i386-mingw32msvc/lib/libmsvcrt.a(dzncs00634.o)
                              funcs.o (sin)
/opt/xmingw/lib/gcc-lib/i386-mingw32msvc/3.3.1/../../../../i386-mingw32msvc/lib/libmsvcrt.a(dzncs00526.o)
                              funcs.o (cos)
/opt/xmingw/lib/gcc-lib/i386-mingw32msvc/3.3.1/../../../../i386-mingw32msvc/lib/libmsvcrt.a(dzncs00624.o)
                              funcs.o (rand)
/opt/xmingw/lib/gcc-lib/i386-mingw32msvc/3.3.1/../../../../i386-mingw32msvc/lib/libmsvcrt.a(dzncs00395.o)
                              load_win.o (_stricmp)
/opt/xmingw/lib/gcc-lib/i386-mingw32msvc/3.3.1/../../../../i386-mingw32msvc/lib/libmsvcrt.a(dzncs00610.o)
                              ../common/tt/str.o (memmove)
/opt/xmingw/lib/gcc-lib/i386-mingw32msvc/3.3.1/../../../../i386-mingw32msvc/lib/libmsvcrt.a(dzncs00510.o)
                              /opt/xmingw/lib/gcc-lib/i386-mingw32msvc/3.3.1/libgcc.a(w32-shared-ptr.o) (abort)
/opt/xmingw/lib/gcc-lib/i386-mingw32msvc/3.3.1/../../../../i386-mingw32msvc/lib/libmsvcrt.a(dzncs00543.o)
                              /opt/xmingw/lib/gcc-lib/i386-mingw32msvc/3.3.1/../../../../i386-mingw32msvc/lib/libmingwex.a(pow.o) (floor)
/opt/xmingw/lib/gcc-lib/i386-mingw32msvc/3.3.1/../../../../i386-mingw32msvc/lib/libmsvcrt.a(dzncs00596.o)
                              /opt/xmingw/lib/gcc-lib/i386-mingw32msvc/3.3.1/../../../../i386-mingw32msvc/lib/libmingwex.a(pow.o) (ldexp)
/opt/xmingw/lib/gcc-lib/i386-mingw32msvc/3.3.1/../../../../i386-mingw32msvc/lib/libmsvcrt.a(dzncs00554.o)
                              /opt/xmingw/lib/gcc-lib/i386-mingw32msvc/3.3.1/../../../../i386-mingw32msvc/lib/libmingwex.a(pow.o) (frexp)
/opt/xmingw/lib/gcc-lib/i386-mingw32msvc/3.3.1/../../../../i386-mingw32msvc/lib/libmsvcrt.a(dznch.o)
                              /opt/xmingw/lib/gcc-lib/i386-mingw32msvc/3.3.1/../../../../i386-mingw32msvc/lib/libmsvcrt.a(dzncs00036.o) (_head_libmsvcrt_a)
/opt/xmingw/lib/gcc-lib/i386-mingw32msvc/3.3.1/../../../../i386-mingw32msvc/lib/libmsvcrt.a(dznct.o)
                              /opt/xmingw/lib/gcc-lib/i386-mingw32msvc/3.3.1/../../../../i386-mingw32msvc/lib/libmsvcrt.a(dznch.o) (_libmsvcrt_a_iname)
/opt/xmingw/lib/gcc-lib/i386-mingw32msvc/3.3.1/../../../../i386-mingw32msvc/lib/libgdi32.a(dihvbs00195.o)
                              ui_win.o (GetStockObject@4)
/opt/xmingw/lib/gcc-lib/i386-mingw32msvc/3.3.1/../../../../i386-mingw32msvc/lib/libgdi32.a(dihvbs00038.o)
                              ../common/tt/ui_compat_win.o (CreateDIBSection@24)
/opt/xmingw/lib/gcc-lib/i386-mingw32msvc/3.3.1/../../../../i386-mingw32msvc/lib/libgdi32.a(dihvbs00072.o)
                              ../common/tt/ui_compat_win.o (DeleteObject@4)
/opt/xmingw/lib/gcc-lib/i386-mingw32msvc/3.3.1/../../../../i386-mingw32msvc/lib/libgdi32.a(dihvbh.o)
                              /opt/xmingw/lib/gcc-lib/i386-mingw32msvc/3.3.1/../../../../i386-mingw32msvc/lib/libgdi32.a(dihvbs00195.o) (_head_libgdi32_a)
/opt/xmingw/lib/gcc-lib/i386-mingw32msvc/3.3.1/../../../../i386-mingw32msvc/lib/libgdi32.a(dihvbt.o)
                              /opt/xmingw/lib/gcc-lib/i386-mingw32msvc/3.3.1/../../../../i386-mingw32msvc/lib/libgdi32.a(dihvbh.o) (_libgdi32_a_iname)
/opt/xmingw/lib/gcc-lib/i386-mingw32msvc/3.3.1/../../../../i386-mingw32msvc/lib/libcomdlg32.a(dkfvbs00009.o)
                              ../common/tt/choosefile_win.o (GetOpenFileNameA@4)
/opt/xmingw/lib/gcc-lib/i386-mingw32msvc/3.3.1/../../../../i386-mingw32msvc/lib/libcomdlg32.a(dkfvbs00011.o)
                              ../common/tt/choosefile_win.o (GetSaveFileNameA@4)
/opt/xmingw/lib/gcc-lib/i386-mingw32msvc/3.3.1/../../../../i386-mingw32msvc/lib/libcomdlg32.a(dkfvbh.o)
                              /opt/xmingw/lib/gcc-lib/i386-mingw32msvc/3.3.1/../../../../i386-mingw32msvc/lib/libcomdlg32.a(dkfvbs00009.o) (_head_libcomdlg32_a)
/opt/xmingw/lib/gcc-lib/i386-mingw32msvc/3.3.1/../../../../i386-mingw32msvc/lib/libcomdlg32.a(dkfvbt.o)
                              /opt/xmingw/lib/gcc-lib/i386-mingw32msvc/3.3.1/../../../../i386-mingw32msvc/lib/libcomdlg32.a(dkfvbh.o) (_libcomdlg32_a_iname)
/opt/xmingw/lib/gcc-lib/i386-mingw32msvc/3.3.1/../../../../i386-mingw32msvc/lib/libuser32.a(dynvbs00429.o)
                              main.o (MessageBeep@4)
/opt/xmingw/lib/gcc-lib/i386-mingw32msvc/3.3.1/../../../../i386-mingw32msvc/lib/libuser32.a(dynvbs00430.o)
                              ui_win.o (MessageBoxA@16)
/opt/xmingw/lib/gcc-lib/i386-mingw32msvc/3.3.1/../../../../i386-mingw32msvc/lib/libuser32.a(dynvbs00252.o)
                              ui_win.o (GetDlgItem@8)
/opt/xmingw/lib/gcc-lib/i386-mingw32msvc/3.3.1/../../../../i386-mingw32msvc/lib/libuser32.a(dynvbs00235.o)
                              ui_win.o (GetClientRect@8)
/opt/xmingw/lib/gcc-lib/i386-mingw32msvc/3.3.1/../../../../i386-mingw32msvc/lib/libuser32.a(dynvbs00494.o)
                              ui_win.o (SendDlgItemMessageA@20)
/opt/xmingw/lib/gcc-lib/i386-mingw32msvc/3.3.1/../../../../i386-mingw32msvc/lib/libuser32.a(dynvbs00251.o)
                              ui_win.o (GetDlgCtrlID@4)
/opt/xmingw/lib/gcc-lib/i386-mingw32msvc/3.3.1/../../../../i386-mingw32msvc/lib/libuser32.a(dynvbs00482.o)
                              ui_win.o (ReleaseCapture@0)
/opt/xmingw/lib/gcc-lib/i386-mingw32msvc/3.3.1/../../../../i386-mingw32msvc/lib/libuser32.a(dynvbs00246.o)
                              ui_win.o (GetCursorPos@4)
/opt/xmingw/lib/gcc-lib/i386-mingw32msvc/3.3.1/../../../../i386-mingw32msvc/lib/libuser32.a(dynvbs00181.o)
                              ui_win.o (EndDialog@8)
/opt/xmingw/lib/gcc-lib/i386-mingw32msvc/3.3.1/../../../../i386-mingw32msvc/lib/libuser32.a(dynvbs00506.o)
                              ui_win.o (SetCapture@4)
/opt/xmingw/lib/gcc-lib/i386-mingw32msvc/3.3.1/../../../../i386-mingw32msvc/lib/libuser32.a(dynvbs00146.o)
                              ui_win.o (DialogBoxParamA@20)
/opt/xmingw/lib/gcc-lib/i386-mingw32msvc/3.3.1/../../../../i386-mingw32msvc/lib/libuser32.a(dynvbs00518.o)
                              ui.o (SetDlgItemInt@16)
/opt/xmingw/lib/gcc-lib/i386-mingw32msvc/3.3.1/../../../../i386-mingw32msvc/lib/libuser32.a(dynvbs00519.o)
                              ui.o (SetDlgItemTextA@12)
/opt/xmingw/lib/gcc-lib/i386-mingw32msvc/3.3.1/../../../../i386-mingw32msvc/lib/libuser32.a(dynvbs00522.o)
                              ui.o (SetFocus@4)
/opt/xmingw/lib/gcc-lib/i386-mingw32msvc/3.3.1/../../../../i386-mingw32msvc/lib/libuser32.a(dynvbs00254.o)
                              ui.o (GetDlgItemTextA@16)
/opt/xmingw/lib/gcc-lib/i386-mingw32msvc/3.3.1/../../../../i386-mingw32msvc/lib/libuser32.a(dynvbs00574.o)
                              ui.o (ShowWindow@8)
/opt/xmingw/lib/gcc-lib/i386-mingw32msvc/3.3.1/../../../../i386-mingw32msvc/lib/libuser32.a(dynvbs00253.o)
                              ui.o (GetDlgItemInt@16)
/opt/xmingw/lib/gcc-lib/i386-mingw32msvc/3.3.1/../../../../i386-mingw32msvc/lib/libuser32.a(dynvbs00179.o)
                              ui.o (EnableWindow@8)
/opt/xmingw/lib/gcc-lib/i386-mingw32msvc/3.3.1/../../../../i386-mingw32msvc/lib/libuser32.a(dynvbs00053.o)
                              ui_build.o (CheckDlgButton@12)
/opt/xmingw/lib/gcc-lib/i386-mingw32msvc/3.3.1/../../../../i386-mingw32msvc/lib/libuser32.a(dynvbs00383.o)
                              ui_build.o (IsDlgButtonChecked@8)
/opt/xmingw/lib/gcc-lib/i386-mingw32msvc/3.3.1/../../../../i386-mingw32msvc/lib/libuser32.a(dynvbs00247.o)
                              preview.o (GetDC@4)
/opt/xmingw/lib/gcc-lib/i386-mingw32msvc/3.3.1/../../../../i386-mingw32msvc/lib/libuser32.a(dynvbs00483.o)
                              preview.o (ReleaseDC@8)
/opt/xmingw/lib/gcc-lib/i386-mingw32msvc/3.3.1/../../../../i386-mingw32msvc/lib/libuser32.a(dynvbs00249.o)
                              ../common/tt/ui_compat_win.o (GetDesktopWindow@0)
/opt/xmingw/lib/gcc-lib/i386-mingw32msvc/3.3.1/../../../../i386-mingw32msvc/lib/libuser32.a(dynvbs00346.o)
                              ../common/tt/ui_compat_win.o (GetWindowRect@8)
/opt/xmingw/lib/gcc-lib/i386-mingw32msvc/3.3.1/../../../../i386-mingw32msvc/lib/libuser32.a(dynvbs00438.o)
                              ../common/tt/ui_compat_win.o (MoveWindow@24)
/opt/xmingw/lib/gcc-lib/i386-mingw32msvc/3.3.1/../../../../i386-mingw32msvc/lib/libuser32.a(dynvbh.o)
                              /opt/xmingw/lib/gcc-lib/i386-mingw32msvc/3.3.1/../../../../i386-mingw32msvc/lib/libuser32.a(dynvbs00429.o) (_head_libuser32_a)
/opt/xmingw/lib/gcc-lib/i386-mingw32msvc/3.3.1/../../../../i386-mingw32msvc/lib/libuser32.a(dynvbt.o)
                              /opt/xmingw/lib/gcc-lib/i386-mingw32msvc/3.3.1/../../../../i386-mingw32msvc/lib/libuser32.a(dynvbh.o) (_libuser32_a_iname)
/opt/xmingw/lib/gcc-lib/i386-mingw32msvc/3.3.1/../../../../i386-mingw32msvc/lib/libkernel32.a(dmivbs00421.o)
                              process.o (GetTickCount@0)
/opt/xmingw/lib/gcc-lib/i386-mingw32msvc/3.3.1/../../../../i386-mingw32msvc/lib/libkernel32.a(dmivbs00196.o)
                              load_win.o (FindResourceA@12)
/opt/xmingw/lib/gcc-lib/i386-mingw32msvc/3.3.1/../../../../i386-mingw32msvc/lib/libkernel32.a(dmivbs00527.o)
                              load_win.o (LoadResource@8)
/opt/xmingw/lib/gcc-lib/i386-mingw32msvc/3.3.1/../../../../i386-mingw32msvc/lib/libkernel32.a(dmivbs00541.o)
                              load_win.o (LockResource@4)
/opt/xmingw/lib/gcc-lib/i386-mingw32msvc/3.3.1/../../../../i386-mingw32msvc/lib/libkernel32.a(dmivbs00523.o)
                              load_win.o (LoadLibraryExA@12)
/opt/xmingw/lib/gcc-lib/i386-mingw32msvc/3.3.1/../../../../i386-mingw32msvc/lib/libkernel32.a(dmivbs00213.o)
                              load_win.o (FreeLibrary@4)
/opt/xmingw/lib/gcc-lib/i386-mingw32msvc/3.3.1/../../../../i386-mingw32msvc/lib/libkernel32.a(dmivbs00323.o)
                              make_win.o (GetLastError@0)
/opt/xmingw/lib/gcc-lib/i386-mingw32msvc/3.3.1/../../../../i386-mingw32msvc/lib/libkernel32.a(dmivbs00208.o)
                              make_win.o (FormatMessageA@28)
/opt/xmingw/lib/gcc-lib/i386-mingw32msvc/3.3.1/../../../../i386-mingw32msvc/lib/libkernel32.a(dmivbs00019.o)
                              make_win.o (BeginUpdateResourceA@8)
/opt/xmingw/lib/gcc-lib/i386-mingw32msvc/3.3.1/../../../../i386-mingw32msvc/lib/libkernel32.a(dmivbs00746.o)
                              make_win.o (SizeofResource@8)
/opt/xmingw/lib/gcc-lib/i386-mingw32msvc/3.3.1/../../../../i386-mingw32msvc/lib/libkernel32.a(dmivbs00776.o)
                              make_win.o (UpdateResourceA@24)
/opt/xmingw/lib/gcc-lib/i386-mingw32msvc/3.3.1/../../../../i386-mingw32msvc/lib/libkernel32.a(dmivbs00123.o)
                              make_win.o (EndUpdateResourceA@8)
/opt/xmingw/lib/gcc-lib/i386-mingw32msvc/3.3.1/../../../../i386-mingw32msvc/lib/libkernel32.a(dmivbs00333.o)
                              make_win.o (GetModuleFileNameA@12)
/opt/xmingw/lib/gcc-lib/i386-mingw32msvc/3.3.1/../../../../i386-mingw32msvc/lib/libkernel32.a(dmivbs00053.o)
                              make_win.o (CopyFileA@12)
/opt/xmingw/lib/gcc-lib/i386-mingw32msvc/3.3.1/../../../../i386-mingw32msvc/lib/libkernel32.a(dmivbs00038.o)
                              ../common/tt/file_compat_win.o (CloseHandle@4)
/opt/xmingw/lib/gcc-lib/i386-mingw32msvc/3.3.1/../../../../i386-mingw32msvc/lib/libkernel32.a(dmivbs00822.o)
                              ../common/tt/file_compat_win.o (WriteFile@20)
/opt/xmingw/lib/gcc-lib/i386-mingw32msvc/3.3.1/../../../../i386-mingw32msvc/lib/libkernel32.a(dmivbs00613.o)
                              ../common/tt/file_compat_win.o (ReadFile@20)
/opt/xmingw/lib/gcc-lib/i386-mingw32msvc/3.3.1/../../../../i386-mingw32msvc/lib/libkernel32.a(dmivbs00068.o)
                              ../common/tt/file_compat_win.o (CreateFileA@28)
/opt/xmingw/lib/gcc-lib/i386-mingw32msvc/3.3.1/../../../../i386-mingw32msvc/lib/libkernel32.a(dmivbs00108.o)
                              ../common/tt/file_compat_win.o (DeleteFileA@4)
/opt/xmingw/lib/gcc-lib/i386-mingw32msvc/3.3.1/../../../../i386-mingw32msvc/lib/libkernel32.a(dmivbs00699.o)
                              ../common/tt/file_compat_win.o (SetFilePointer@16)
/opt/xmingw/lib/gcc-lib/i386-mingw32msvc/3.3.1/../../../../i386-mingw32msvc/lib/libkernel32.a(dmivbs00311.o)
                              ../common/tt/file_compat_win.o (GetFileSize@8)
/opt/xmingw/lib/gcc-lib/i386-mingw32msvc/3.3.1/../../../../i386-mingw32msvc/lib/libkernel32.a(dmivbs00690.o)
                              ../common/tt/file_compat_win.o (SetEndOfFile@4)
/opt/xmingw/lib/gcc-lib/i386-mingw32msvc/3.3.1/../../../../i386-mingw32msvc/lib/libkernel32.a(dmivbs00431.o)
                              ../common/tt/compat_win.o (GetVersionExA@4)
/opt/xmingw/lib/gcc-lib/i386-mingw32msvc/3.3.1/../../../../i386-mingw32msvc/lib/libkernel32.a(dmivbs00175.o)
                              /opt/xmingw/lib/gcc-lib/i386-mingw32msvc/3.3.1/libgcc.a(w32-shared-ptr.o) (FindAtomA@4)
/opt/xmingw/lib/gcc-lib/i386-mingw32msvc/3.3.1/../../../../i386-mingw32msvc/lib/libkernel32.a(dmivbs00001.o)
                              /opt/xmingw/lib/gcc-lib/i386-mingw32msvc/3.3.1/libgcc.a(w32-shared-ptr.o) (AddAtomA@4)
/opt/xmingw/lib/gcc-lib/i386-mingw32msvc/3.3.1/../../../../i386-mingw32msvc/lib/libkernel32.a(dmivbs00220.o)
                              /opt/xmingw/lib/gcc-lib/i386-mingw32msvc/3.3.1/libgcc.a(w32-shared-ptr.o) (GetAtomNameA@12)
/opt/xmingw/lib/gcc-lib/i386-mingw32msvc/3.3.1/../../../../i386-mingw32msvc/lib/libkernel32.a(dmivbh.o)
                              /opt/xmingw/lib/gcc-lib/i386-mingw32msvc/3.3.1/../../../../i386-mingw32msvc/lib/libkernel32.a(dmivbs00421.o) (_head_libkernel32_a)
/opt/xmingw/lib/gcc-lib/i386-mingw32msvc/3.3.1/../../../../i386-mingw32msvc/lib/libkernel32.a(dmivbt.o)
                              /opt/xmingw/lib/gcc-lib/i386-mingw32msvc/3.3.1/../../../../i386-mingw32msvc/lib/libkernel32.a(dmivbh.o) (_libkernel32_a_iname)

Allocating common symbols
Common symbol       size              file

varused             0x400             node.o
__DTOR_LIST__       0x10              /opt/xmingw/lib/gcc-lib/i386-mingw32msvc/3.3.1/libgcc.a(_ctors.o)
__w32_sharedptr_terminate
                    0x10              /opt/xmingw/lib/gcc-lib/i386-mingw32msvc/3.3.1/libgcc.a(w32-shared-ptr.o)
ctls                0x20              ui_build.o
yychar              0x10              parser.o
map                 0x1000            main.o
preview_hwnd        0x10              ui_win.o
errstart            0x10              main.o
cell                0x400             main.o
preview_rect        0x10              preview.o
needinput           0x10              process.o
maps                0x10              ui_build.o
errstr              0x10              parser.o
zoomfactor          0x10              ui.o
inarglist           0x190             parser.o
hash_table          0x200             symtab.o
var                 0x400             node.o
srcradused          0x10              main.o
arglistptr          0x10              parser.o
gpb                 0x10              main.o
__w32_sharedptr     0x10              /opt/xmingw/lib/gcc-lib/i386-mingw32msvc/3.3.1/libgcc.a(w32-shared-ptr.o)
errpos              0x10              main.o
tokstart            0x10              lexer.o
err                 0x10              main.o
preview_handle      0x10              preview.o
node_list           0x10              node.o
yyleng              0x10              lexer.o
__CTOR_LIST__       0x10              /opt/xmingw/lib/gcc-lib/i386-mingw32msvc/3.3.1/libgcc.a(_ctors.o)
fitzoom             0x10              ui.o
preview_h           0x10              preview.o
gdata               0x10              main.o
parsetree           0x10              parser.o
yynerrs             0x10              parser.o
preview_w           0x10              preview.o
preview_pmap        0x40              preview.o
yylval              0x10              parser.o
tokpos              0x10              lexer.o
expr                0x10              main.o
__w32_sharedptr_unexpected
                    0x10              /opt/xmingw/lib/gcc-lib/i386-mingw32msvc/3.3.1/libgcc.a(w32-shared-ptr.o)
preview_scroll      0x10              preview.o
chunksize           0x10              main.o
preview_pmask       0x20              preview.o
nplanes             0x10              main.o
allocs              0x10              node.o
toprow              0x10              main.o
event_id            0x10              make.o
yytext              0x10              lexer.o
slider              0x20              main.o
tree                0x10              main.o

Memory Configuration

Name             Origin             Length             Attributes
*default*        0x00000000         0xffffffff

Linker script and memory map

                0x6d640000                __image_base__ = 0x6d640000
                0x00000001                __dll__ = 0x1
                0x00001000                __section_alignment__ = 0x1000
                0x00000200                __file_alignment__ = 0x200
                0x00000004                __major_os_version__ = 0x4
                0x00000000                __minor_os_version__ = 0x0
                0x00000001                __major_image_version__ = 0x1
                0x00000000                __minor_image_version__ = 0x0
                0x00000004                __major_subsystem_version__ = 0x4
                0x00000000                __minor_subsystem_version__ = 0x0
                0x00000002                __subsystem__ = 0x2
                0x00200000                __size_of_stack_reserve__ = 0x200000
                0x00001000                __size_of_stack_commit__ = 0x1000
                0x00100000                __size_of_heap_reserve__ = 0x100000
                0x00001000                __size_of_heap_commit__ = 0x1000
                0x00000000                __loader_flags__ = 0x0
LOAD /opt/xmingw/lib/gcc-lib/i386-mingw32msvc/3.3.1/../../../../i386-mingw32msvc/lib/dllcrt2.o
LOAD /opt/xmingw/lib/gcc-lib/i386-mingw32msvc/3.3.1/crtbegin.o
LOAD FilterFoundry.exp
LOAD main.o
LOAD ui_win.o
LOAD ui.o
LOAD ui_build.o
LOAD ui_build_win.o
LOAD preview.o
LOAD read.o
LOAD save.o
LOAD parser.o
LOAD lexer.o
LOAD node.o
LOAD symtab.o
LOAD funcs.o
LOAD trigtab.o
LOAD process.o
LOAD load_win.o
LOAD make_win.o
LOAD make.o
LOAD scripting.o
LOAD ../common/tt/str.o
LOAD ../common/tt/sprintf_tiny.o
LOAD ../common/tt/ui_compat_win.o
LOAD ../common/tt/file_compat_win.o
LOAD ../common/tt/choosefile_win.o
LOAD ../common/tt/compat_string.o
LOAD ../common/tt/compat_win.o
LOAD ../common/tt/dbg_win.o
LOAD ../common/adobeplugin/dllmain.o
LOAD res.o
LOAD /opt/xmingw/lib/gcc-lib/i386-mingw32msvc/3.3.1/../../../../i386-mingw32msvc/lib/libmingw32.a
LOAD /opt/xmingw/lib/gcc-lib/i386-mingw32msvc/3.3.1/libgcc.a
LOAD /opt/xmingw/lib/gcc-lib/i386-mingw32msvc/3.3.1/../../../../i386-mingw32msvc/lib/libmoldname.a
LOAD /opt/xmingw/lib/gcc-lib/i386-mingw32msvc/3.3.1/../../../../i386-mingw32msvc/lib/libmingwex.a
LOAD /opt/xmingw/lib/gcc-lib/i386-mingw32msvc/3.3.1/../../../../i386-mingw32msvc/lib/libmsvcrt.a
LOAD /opt/xmingw/lib/gcc-lib/i386-mingw32msvc/3.3.1/../../../../i386-mingw32msvc/lib/libgdi32.a
LOAD /opt/xmingw/lib/gcc-lib/i386-mingw32msvc/3.3.1/../../../../i386-mingw32msvc/lib/libcomdlg32.a
LOAD /opt/xmingw/lib/gcc-lib/i386-mingw32msvc/3.3.1/../../../../i386-mingw32msvc/lib/libuser32.a
LOAD /opt/xmingw/lib/gcc-lib/i386-mingw32msvc/3.3.1/../../../../i386-mingw32msvc/lib/libkernel32.a
LOAD /opt/xmingw/lib/gcc-lib/i386-mingw32msvc/3.3.1/../../../../i386-mingw32msvc/lib/libadvapi32.a
LOAD /opt/xmingw/lib/gcc-lib/i386-mingw32msvc/3.3.1/../../../../i386-mingw32msvc/lib/libshell32.a
LOAD /opt/xmingw/lib/gcc-lib/i386-mingw32msvc/3.3.1/../../../../i386-mingw32msvc/lib/libmingw32.a
LOAD /opt/xmingw/lib/gcc-lib/i386-mingw32msvc/3.3.1/libgcc.a
LOAD /opt/xmingw/lib/gcc-lib/i386-mingw32msvc/3.3.1/../../../../i386-mingw32msvc/lib/libmoldname.a
LOAD /opt/xmingw/lib/gcc-lib/i386-mingw32msvc/3.3.1/../../../../i386-mingw32msvc/lib/libmingwex.a
LOAD /opt/xmingw/lib/gcc-lib/i386-mingw32msvc/3.3.1/../../../../i386-mingw32msvc/lib/libmsvcrt.a
LOAD /opt/xmingw/lib/gcc-lib/i386-mingw32msvc/3.3.1/crtend.o

.text           0x6d641000     0xd200
 *(.init)
 *(.text)
 .text          0x6d641000      0x160 /opt/xmingw/lib/gcc-lib/i386-mingw32msvc/3.3.1/../../../../i386-mingw32msvc/lib/dllcrt2.o
                0x6d641100                atexit
                0x6d641130                _onexit
                0x6d641000                DllMainCRTStartup@12
 .text          0x6d641160       0x10 /opt/xmingw/lib/gcc-lib/i386-mingw32msvc/3.3.1/crtbegin.o
                0x6d641160                __do_sjlj_init
 .text          0x6d641170      0x580 main.o
                0x6d641180                PluginMain
                0x6d641550                DoStart
                0x6d6414d0                RequestNext
                0x6d641340                checkandinitparams
                0x6d6415a0                DoContinue
                0x6d641690                DoFinish
                0x6d641480                DoPrepare
 .text          0x6d6416f0      0x760 ui_win.o
                0x6d641df0                maindialog
                0x6d6419d0                simplealert
                0x6d641a10                maindlgproc@16
                0x6d6418c0                DoAbout
 .text          0x6d641e50     0x1300 ui.o
                0x6d642390                checksl
                0x6d6426e0                maindlgupdate
                0x6d642930                maindlginit
                0x6d642140                updateexpr
                0x6d642060                updateglobals
                0x6d642cc0                maindlgitem
                0x6d6425a0                slidermoved
                0x6d6430c0                alertuser
                0x6d642610                slidertextchanged
                0x6d642270                updatezoom
                0x6d642510                checksliders
                0x6d641e70                updatedialog
 .text          0x6d643150      0x750 ui_build.o
                0x6d6435f0                builddlgitem
                0x6d643180                builddlginit
 .text          0x6d6438a0       0xd0 ui_build_win.o
                0x6d6438a0                builddlgproc@16
                0x6d643920                builddialog
 .text          0x6d643970      0xa20 preview.o
                0x6d643ad0                dispose_preview
                0x6d643970                setup_preview
                0x6d6441e0                drawpreview
                0x6d643b90                recalc_preview
 .text          0x6d644390      0x6a0 read.o
                0x6d6447a0                readPARM
                0x6d644980                readfile
                0x6d6444c0                readparams
                0x6d6448b0                readfileintohandle
 .text          0x6d644a30      0x500 save.o
                0x6d644d50                savehandleintofile
                0x6d644af0                saveparams
                0x6d644a30                putstr
                0x6d644e20                savefile
 .text          0x6d644f30     0x1cc0 parser.o
                0x6d644f60                pushflag
                0x6d646480                yyparse
                0x6d646b60                parseexpr
                0x6d646bd0                yyerror
 .text          0x6d646bf0     0x15a0 lexer.o
                0x6d647ec0                yy_create_buffer
                0x6d647e80                yy_load_buffer_state
                0x6d647e20                yy_switch_to_buffer
                0x6d647dd0                yyrestart
                0x6d647ff0                yy_scan_buffer
                0x6d647fa0                yy_flush_buffer
                0x6d6480b0                yy_scan_bytes
                0x6d647f10                yy_delete_buffer
                0x6d648080                yy_scan_string
                0x6d647f70                yy_init_buffer
                0x6d6472b0                yylex
 .text          0x6d648190      0xd20 node.o
                0x6d648190                newnode
                0x6d648dd0                freetree
                0x6d648480                eval
                0x6d6481d0                freenodes
                0x6d648210                freeallnodes
                0x6d648e20                checkvars
                0x6d6482e0                dumptree
 .text          0x6d648eb0      0x2a0 symtab.o
                0x6d648eb0                djb2
                0x6d649120                insert
                0x6d648f20                init_symtab
                0x6d6490c0                lookup
                0x6d649000                dump_symbols
 .text          0x6d649150      0x7d0 funcs.o
                0x6d649530                ff_sqr
                0x6d649300                ff_min
                0x6d649230                ff_ctl
                0x6d6494a0                ff_scl
                0x6d649450                ff_mix
                0x6d6493b0                ff_dif
                0x6d6495a0                ff_tan
                0x6d649740                ff_put
                0x6d649320                ff_max
                0x6d649700                ff_c2m
                0x6d649380                ff_sub
                0x6d649360                ff_add
                0x6d649760                ff_cnv
                0x6d6492a0                ff_map
                0x6d649150                ff_src
                0x6d6493d0                ff_rnd
                0x6d649550                ff_sin
                0x6d649250                ff_val
                0x6d6495e0                ff_r2x
                0x6d649340                ff_abs
                0x6d6496a0                ff_c2d
                0x6d6491d0                ff_rad
                0x6d649640                ff_r2y
                0x6d649720                ff_get
                0x6d6494f0                isqrt
                0x6d649560                ff_cos
 .text          0x6d649920      0x7a0 process.o
                0x6d649cd0                process
                0x6d649f00                process_scaled
                0x6d649920                setup
                0x6d649a70                evalpixel
 .text          0x6d64a0c0      0x280 load_win.o
                0x6d64a0d0                readPARMresource
                0x6d64a220                loadfile
 .text          0x6d64a340      0x6e0 make_win.o
                0x6d64a970                make_standalone
                0x6d64a470                doresources
                0x6d64a350                dbglasterror
 .text          0x6d64aa20      0x2e0 make.o
                0x6d64ac10                fixaete
                0x6d64aa20                printablehash
                0x6d64aad0                fixpipl
 .text          0x6d64ad00      0x5d0 scripting.o
                0x6d64ae50                ReadScriptParamsOnRead
                0x6d64b150                HostDescriptorAvailable
                0x6d64aff0                WriteScriptParamsOnRead
                0x6d64b270                HostCloseWriter
                0x6d64ad90                get_cstring
                0x6d64b220                HostCloseReader
                0x6d64ad00                put_cstring
 .text          0x6d64b2d0      0x270 ../common/tt/str.o
                0x6d64b440                my_strdup
                0x6d64b490                PLcstrcpy
                0x6d64b3e0                cat
                0x6d64b4e0                PLcstrcat
                0x6d64b410                my_memset
                0x6d64b390                myc2pstrcpy
                0x6d64b350                myp2cstrcpy
                0x6d64b2d0                myc2pstr
                0x6d64b310                myp2cstr
 .text          0x6d64b540      0x3e0 ../common/tt/sprintf_tiny.o
                0x6d64b720                vsprintf_tiny
                0x6d64b5e0                int_str
                0x6d64b540                int_exp
                0x6d64b8f0                sprintf_tiny
                0x6d64b590                udigits
                0x6d64b670                float_str
                0x6d64b620                int_strpad
 .text          0x6d64b920      0x230 ../common/tt/ui_compat_win.o
                0x6d64b940                newbitmap
                0x6d64ba40                disposebitmap
                0x6d64ba80                centre_window
 .text          0x6d64bb50      0x330 ../common/tt/file_compat_win.o
                0x6d64bd30                FSpDelete
                0x6d64bc30                FSpOpenDF
                0x6d64be30                SetEOF
                0x6d64be00                GetEOF
                0x6d64bdb0                SetFPos
                0x6d64bcb0                FSpCreate
                0x6d64bd70                GetFPos
                0x6d64bbd0                FSRead
                0x6d64bb80                FSWrite
                0x6d64bb50                FSClose
 .text          0x6d64be80      0x220 ../common/tt/choosefile_win.o
                0x6d64c090                completesave
                0x6d64be80                choosefiletypes
                0x6d64bfa0                putfile
                0x6d64bec0                choosefile
 .text          0x6d64c0a0      0x170 ../common/tt/compat_string.o
                0x6d64c160                PLstrcmp
                0x6d64c1d0                NumToString
                0x6d64c120                PLstrrchr
                0x6d64c0a0                PLstrcpy
                0x6d64c0d0                PLstrcat
 .text          0x6d64c210       0x50 ../common/tt/compat_win.o
                0x6d64c210                isWin32NT
 .text          0x6d64c260       0x40 ../common/tt/dbg_win.o
                0x6d64c270                dbg
 .text          0x6d64c2a0       0x20 ../common/adobeplugin/dllmain.o
                0x6d64c2a0                DllMain@12
 .text          0x6d64c2c0       0xb0 /opt/xmingw/lib/gcc-lib/i386-mingw32msvc/3.3.1/../../../../i386-mingw32msvc/lib/libmingw32.a(gccmain.o)
                0x6d64c350                __main
                0x6d64c2c0                __do_global_dtors
                0x6d64c2f0                __do_global_ctors
 .text          0x6d64c370       0x70 /opt/xmingw/lib/gcc-lib/i386-mingw32msvc/3.3.1/../../../../i386-mingw32msvc/lib/libmingw32.a(pseudo-reloc.o)
                0x6d64c3b0                _pei386_runtime_relocator
 .text          0x6d64c3e0      0x320 /opt/xmingw/lib/gcc-lib/i386-mingw32msvc/3.3.1/libgcc.a(w32-shared-ptr.o)
                0x6d64c4a0                __w32_sharedptr_initialize
 .text          0x6d64c700       0x30 /opt/xmingw/lib/gcc-lib/i386-mingw32msvc/3.3.1/libgcc.a(_chkstk.o)
                0x6d64c700                __chkstk
                0x6d64c700                _alloca
 .text          0x6d64c730      0xfc0 /opt/xmingw/lib/gcc-lib/i386-mingw32msvc/3.3.1/../../../../i386-mingw32msvc/lib/libmingwex.a(pow.o)
                0x6d64c940                pow
 .text          0x6d64d6f0       0x50 /opt/xmingw/lib/gcc-lib/i386-mingw32msvc/3.3.1/../../../../i386-mingw32msvc/lib/libmingwex.a(fp_consts.o)
                0x6d64d6f0                __QNAN
                0x6d64d730                nan
                0x6d64d700                __SNAN
                0x6d64d720                __DENORM
                0x6d64d710                __INF
 .text          0x6d64d740      0x300 /opt/xmingw/lib/gcc-lib/i386-mingw32msvc/3.3.1/../../../../i386-mingw32msvc/lib/libmingwex.a(powi.o)
                0x6d64d780                __powi
 .text          0x6d64da40       0x30 /opt/xmingw/lib/gcc-lib/i386-mingw32msvc/3.3.1/../../../../i386-mingw32msvc/lib/libmingwex.a(signbit.o)
                0x6d64da40                __signbit
                0x6d64da40                signbit
 .text          0x6d64da70       0x30 /opt/xmingw/lib/gcc-lib/i386-mingw32msvc/3.3.1/../../../../i386-mingw32msvc/lib/libmingwex.a(fpclassify.o)
                0x6d64da70                __fpclassify
 .text          0x6d64daa0       0x50 /opt/xmingw/lib/gcc-lib/i386-mingw32msvc/3.3.1/../../../../i386-mingw32msvc/lib/libmingwex.a(isnan.o)
                0x6d64daa0                isnan
                0x6d64daa0                __isnan
 .text          0x6d64daf0        0x8 /opt/xmingw/lib/gcc-lib/i386-mingw32msvc/3.3.1/../../../../i386-mingw32msvc/lib/libmsvcrt.a(dzncs00036.o)
                0x6d64daf0                __dllonexit
 *fill*         0x6d64daf8        0x8 00
 .text          0x6d64db00        0x8 /opt/xmingw/lib/gcc-lib/i386-mingw32msvc/3.3.1/../../../../i386-mingw32msvc/lib/libmsvcrt.a(dzncs00537.o)
                0x6d64db00                fflush
 *fill*         0x6d64db08        0x8 00
 .text          0x6d64db10        0x8 /opt/xmingw/lib/gcc-lib/i386-mingw32msvc/3.3.1/../../../../i386-mingw32msvc/lib/libmsvcrt.a(dzncs00552.o)
                0x6d64db10                free
 *fill*         0x6d64db18        0x8 00
 .text          0x6d64db20        0x8 /opt/xmingw/lib/gcc-lib/i386-mingw32msvc/3.3.1/../../../../i386-mingw32msvc/lib/libmsvcrt.a(dzncs00147.o)
                0x6d64db20                _errno
 *fill*         0x6d64db28        0x8 00
 .text          0x6d64db30        0x8 /opt/xmingw/lib/gcc-lib/i386-mingw32msvc/3.3.1/../../../../i386-mingw32msvc/lib/libmsvcrt.a(dzncs00603.o)
                0x6d64db30                malloc
 *fill*         0x6d64db38        0x8 00
 .text          0x6d64db40        0x8 /opt/xmingw/lib/gcc-lib/i386-mingw32msvc/3.3.1/../../../../i386-mingw32msvc/lib/libmsvcrt.a(dzncs00640.o)
                0x6d64db40                strcat
 *fill*         0x6d64db48        0x8 00
 .text          0x6d64db50        0x8 /opt/xmingw/lib/gcc-lib/i386-mingw32msvc/3.3.1/../../../../i386-mingw32msvc/lib/libmsvcrt.a(dzncs00636.o)
                0x6d64db50                sprintf
 *fill*         0x6d64db58        0x8 00
 .text          0x6d64db60        0x8 /opt/xmingw/lib/gcc-lib/i386-mingw32msvc/3.3.1/../../../../i386-mingw32msvc/lib/libmsvcrt.a(dzncs00648.o)
                0x6d64db60                strlen
 *fill*         0x6d64db68        0x8 00
 .text          0x6d64db70        0x8 /opt/xmingw/lib/gcc-lib/i386-mingw32msvc/3.3.1/../../../../i386-mingw32msvc/lib/libmsvcrt.a(dzncs00644.o)
                0x6d64db70                strcpy
 *fill*         0x6d64db78        0x8 00
 .text          0x6d64db80        0x8 /opt/xmingw/lib/gcc-lib/i386-mingw32msvc/3.3.1/../../../../i386-mingw32msvc/lib/libmsvcrt.a(dzncs00611.o)
                0x6d64db80                memset
 *fill*         0x6d64db88        0x8 00
 .text          0x6d64db90        0x8 /opt/xmingw/lib/gcc-lib/i386-mingw32msvc/3.3.1/../../../../i386-mingw32msvc/lib/libmsvcrt.a(dzncs00638.o)
                0x6d64db90                srand
 *fill*         0x6d64db98        0x8 00
 .text          0x6d64dba0        0x8 /opt/xmingw/lib/gcc-lib/i386-mingw32msvc/3.3.1/../../../../i386-mingw32msvc/lib/libmsvcrt.a(dzncs00609.o)
                0x6d64dba0                memcpy
 *fill*         0x6d64dba8        0x8 00
 .text          0x6d64dbb0        0x8 /opt/xmingw/lib/gcc-lib/i386-mingw32msvc/3.3.1/../../../../i386-mingw32msvc/lib/libmsvcrt.a(dzncs00519.o)
                0x6d64dbb0                atoi
 *fill*         0x6d64dbb8        0x8 00
 .text          0x6d64dbc0        0x8 /opt/xmingw/lib/gcc-lib/i386-mingw32msvc/3.3.1/../../../../i386-mingw32msvc/lib/libmsvcrt.a(dzncs00625.o)
                0x6d64dbc0                realloc
 *fill*         0x6d64dbc8        0x8 00
 .text          0x6d64dbd0        0x8 /opt/xmingw/lib/gcc-lib/i386-mingw32msvc/3.3.1/../../../../i386-mingw32msvc/lib/libmsvcrt.a(dzncs00531.o)
                0x6d64dbd0                exit
 *fill*         0x6d64dbd8        0x8 00
 .text          0x6d64dbe0        0x8 /opt/xmingw/lib/gcc-lib/i386-mingw32msvc/3.3.1/../../../../i386-mingw32msvc/lib/libmsvcrt.a(dzncs00546.o)
                0x6d64dbe0                fprintf
 *fill*         0x6d64dbe8        0x8 00
 .text          0x6d64dbf0        0x8 /opt/xmingw/lib/gcc-lib/i386-mingw32msvc/3.3.1/../../../../i386-mingw32msvc/lib/libmsvcrt.a(dzncs00670.o)
                0x6d64dbf0                toupper
 *fill*         0x6d64dbf8        0x8 00
 .text          0x6d64dc00        0x8 /opt/xmingw/lib/gcc-lib/i386-mingw32msvc/3.3.1/../../../../i386-mingw32msvc/lib/libmsvcrt.a(dzncs00616.o)
                0x6d64dc00                printf
 *fill*         0x6d64dc08        0x8 00
 .text          0x6d64dc10        0x8 /opt/xmingw/lib/gcc-lib/i386-mingw32msvc/3.3.1/../../../../i386-mingw32msvc/lib/libmsvcrt.a(dzncs00619.o)
                0x6d64dc10                puts
 *fill*         0x6d64dc18        0x8 00
 .text          0x6d64dc20        0x8 /opt/xmingw/lib/gcc-lib/i386-mingw32msvc/3.3.1/../../../../i386-mingw32msvc/lib/libmsvcrt.a(dzncs00224.o)
                0x6d64dc20                _isctype
 *fill*         0x6d64dc28        0x8 00
 .text          0x6d64dc30        0x8 /opt/xmingw/lib/gcc-lib/i386-mingw32msvc/3.3.1/../../../../i386-mingw32msvc/lib/libmsvcrt.a(dzncs00176.o)
                0x6d64dc30                _flsbuf
 *fill*         0x6d64dc38        0x8 00
 .text          0x6d64dc40        0x8 /opt/xmingw/lib/gcc-lib/i386-mingw32msvc/3.3.1/../../../../i386-mingw32msvc/lib/libmsvcrt.a(dzncs00642.o)
                0x6d64dc40                strcmp
 *fill*         0x6d64dc48        0x8 00
 .text          0x6d64dc50        0x8 /opt/xmingw/lib/gcc-lib/i386-mingw32msvc/3.3.1/../../../../i386-mingw32msvc/lib/libmsvcrt.a(dzncs00516.o)
                0x6d64dc50                atan2
 *fill*         0x6d64dc58        0x8 00
 .text          0x6d64dc60        0x8 /opt/xmingw/lib/gcc-lib/i386-mingw32msvc/3.3.1/../../../../i386-mingw32msvc/lib/libmsvcrt.a(dzncs00634.o)
                0x6d64dc60                sin
 *fill*         0x6d64dc68        0x8 00
 .text          0x6d64dc70        0x8 /opt/xmingw/lib/gcc-lib/i386-mingw32msvc/3.3.1/../../../../i386-mingw32msvc/lib/libmsvcrt.a(dzncs00526.o)
                0x6d64dc70                cos
 *fill*         0x6d64dc78        0x8 00
 .text          0x6d64dc80        0x8 /opt/xmingw/lib/gcc-lib/i386-mingw32msvc/3.3.1/../../../../i386-mingw32msvc/lib/libmsvcrt.a(dzncs00624.o)
                0x6d64dc80                rand
 *fill*         0x6d64dc88        0x8 00
 .text          0x6d64dc90        0x8 /opt/xmingw/lib/gcc-lib/i386-mingw32msvc/3.3.1/../../../../i386-mingw32msvc/lib/libmsvcrt.a(dzncs00395.o)
                0x6d64dc90                _stricmp
 *fill*         0x6d64dc98        0x8 00
 .text          0x6d64dca0        0x8 /opt/xmingw/lib/gcc-lib/i386-mingw32msvc/3.3.1/../../../../i386-mingw32msvc/lib/libmsvcrt.a(dzncs00610.o)
                0x6d64dca0                memmove
 *fill*         0x6d64dca8        0x8 00
 .text          0x6d64dcb0        0x8 /opt/xmingw/lib/gcc-lib/i386-mingw32msvc/3.3.1/../../../../i386-mingw32msvc/lib/libmsvcrt.a(dzncs00510.o)
                0x6d64dcb0                abort
 *fill*         0x6d64dcb8        0x8 00
 .text          0x6d64dcc0        0x8 /opt/xmingw/lib/gcc-lib/i386-mingw32msvc/3.3.1/../../../../i386-mingw32msvc/lib/libmsvcrt.a(dzncs00543.o)
                0x6d64dcc0                floor
 *fill*         0x6d64dcc8        0x8 00
 .text          0x6d64dcd0        0x8 /opt/xmingw/lib/gcc-lib/i386-mingw32msvc/3.3.1/../../../../i386-mingw32msvc/lib/libmsvcrt.a(dzncs00596.o)
                0x6d64dcd0                ldexp
 *fill*         0x6d64dcd8        0x8 00
 .text          0x6d64dce0        0x8 /opt/xmingw/lib/gcc-lib/i386-mingw32msvc/3.3.1/../../../../i386-mingw32msvc/lib/libmsvcrt.a(dzncs00554.o)
                0x6d64dce0                frexp
 *fill*         0x6d64dce8        0x8 00
 .text          0x6d64dcf0        0x8 /opt/xmingw/lib/gcc-lib/i386-mingw32msvc/3.3.1/../../../../i386-mingw32msvc/lib/libgdi32.a(dihvbs00195.o)
                0x6d64dcf0                GetStockObject@4
 *fill*         0x6d64dcf8        0x8 00
 .text          0x6d64dd00        0x8 /opt/xmingw/lib/gcc-lib/i386-mingw32msvc/3.3.1/../../../../i386-mingw32msvc/lib/libgdi32.a(dihvbs00038.o)
                0x6d64dd00                CreateDIBSection@24
 *fill*         0x6d64dd08        0x8 00
 .text          0x6d64dd10        0x8 /opt/xmingw/lib/gcc-lib/i386-mingw32msvc/3.3.1/../../../../i386-mingw32msvc/lib/libgdi32.a(dihvbs00072.o)
                0x6d64dd10                DeleteObject@4
 *fill*         0x6d64dd18        0x8 00
 .text          0x6d64dd20        0x8 /opt/xmingw/lib/gcc-lib/i386-mingw32msvc/3.3.1/../../../../i386-mingw32msvc/lib/libcomdlg32.a(dkfvbs00009.o)
                0x6d64dd20                GetOpenFileNameA@4
 *fill*         0x6d64dd28        0x8 00
 .text          0x6d64dd30        0x8 /opt/xmingw/lib/gcc-lib/i386-mingw32msvc/3.3.1/../../../../i386-mingw32msvc/lib/libcomdlg32.a(dkfvbs00011.o)
                0x6d64dd30                GetSaveFileNameA@4
 *fill*         0x6d64dd38        0x8 00
 .text          0x6d64dd40        0x8 /opt/xmingw/lib/gcc-lib/i386-mingw32msvc/3.3.1/../../../../i386-mingw32msvc/lib/libuser32.a(dynvbs00429.o)
                0x6d64dd40                MessageBeep@4
 *fill*         0x6d64dd48        0x8 00
 .text          0x6d64dd50        0x8 /opt/xmingw/lib/gcc-lib/i386-mingw32msvc/3.3.1/../../../../i386-mingw32msvc/lib/libuser32.a(dynvbs00430.o)
                0x6d64dd50                MessageBoxA@16
 *fill*         0x6d64dd58        0x8 00
 .text          0x6d64dd60        0x8 /opt/xmingw/lib/gcc-lib/i386-mingw32msvc/3.3.1/../../../../i386-mingw32msvc/lib/libuser32.a(dynvbs00252.o)
                0x6d64dd60                GetDlgItem@8
 *fill*         0x6d64dd68        0x8 00
 .text          0x6d64dd70        0x8 /opt/xmingw/lib/gcc-lib/i386-mingw32msvc/3.3.1/../../../../i386-mingw32msvc/lib/libuser32.a(dynvbs00235.o)
                0x6d64dd70                GetClientRect@8
 *fill*         0x6d64dd78        0x8 00
 .text          0x6d64dd80        0x8 /opt/xmingw/lib/gcc-lib/i386-mingw32msvc/3.3.1/../../../../i386-mingw32msvc/lib/libuser32.a(dynvbs00494.o)
                0x6d64dd80                SendDlgItemMessageA@20
 *fill*         0x6d64dd88        0x8 00
 .text          0x6d64dd90        0x8 /opt/xmingw/lib/gcc-lib/i386-mingw32msvc/3.3.1/../../../../i386-mingw32msvc/lib/libuser32.a(dynvbs00251.o)
                0x6d64dd90                GetDlgCtrlID@4
 *fill*         0x6d64dd98        0x8 00
 .text          0x6d64dda0        0x8 /opt/xmingw/lib/gcc-lib/i386-mingw32msvc/3.3.1/../../../../i386-mingw32msvc/lib/libuser32.a(dynvbs00482.o)
                0x6d64dda0                ReleaseCapture@0
 *fill*         0x6d64dda8        0x8 00
 .text          0x6d64ddb0        0x8 /opt/xmingw/lib/gcc-lib/i386-mingw32msvc/3.3.1/../../../../i386-mingw32msvc/lib/libuser32.a(dynvbs00246.o)
                0x6d64ddb0                GetCursorPos@4
 *fill*         0x6d64ddb8        0x8 00
 .text          0x6d64ddc0        0x8 /opt/xmingw/lib/gcc-lib/i386-mingw32msvc/3.3.1/../../../../i386-mingw32msvc/lib/libuser32.a(dynvbs00181.o)
                0x6d64ddc0                EndDialog@8
 *fill*         0x6d64ddc8        0x8 00
 .text          0x6d64ddd0        0x8 /opt/xmingw/lib/gcc-lib/i386-mingw32msvc/3.3.1/../../../../i386-mingw32msvc/lib/libuser32.a(dynvbs00506.o)
                0x6d64ddd0                SetCapture@4
 *fill*         0x6d64ddd8        0x8 00
 .text          0x6d64dde0        0x8 /opt/xmingw/lib/gcc-lib/i386-mingw32msvc/3.3.1/../../../../i386-mingw32msvc/lib/libuser32.a(dynvbs00146.o)
                0x6d64dde0                DialogBoxParamA@20
 *fill*         0x6d64dde8        0x8 00
 .text          0x6d64ddf0        0x8 /opt/xmingw/lib/gcc-lib/i386-mingw32msvc/3.3.1/../../../../i386-mingw32msvc/lib/libuser32.a(dynvbs00518.o)
                0x6d64ddf0                SetDlgItemInt@16
 *fill*         0x6d64ddf8        0x8 00
 .text          0x6d64de00        0x8 /opt/xmingw/lib/gcc-lib/i386-mingw32msvc/3.3.1/../../../../i386-mingw32msvc/lib/libuser32.a(dynvbs00519.o)
                0x6d64de00                SetDlgItemTextA@12
 *fill*         0x6d64de08        0x8 00
 .text          0x6d64de10        0x8 /opt/xmingw/lib/gcc-lib/i386-mingw32msvc/3.3.1/../../../../i386-mingw32msvc/lib/libuser32.a(dynvbs00522.o)
                0x6d64de10                SetFocus@4
 *fill*         0x6d64de18        0x8 00
 .text          0x6d64de20        0x8 /opt/xmingw/lib/gcc-lib/i386-mingw32msvc/3.3.1/../../../../i386-mingw32msvc/lib/libuser32.a(dynvbs00254.o)
                0x6d64de20                GetDlgItemTextA@16
 *fill*         0x6d64de28        0x8 00
 .text          0x6d64de30        0x8 /opt/xmingw/lib/gcc-lib/i386-mingw32msvc/3.3.1/../../../../i386-mingw32msvc/lib/libuser32.a(dynvbs00574.o)
                0x6d64de30                ShowWindow@8
 *fill*         0x6d64de38        0x8 00
 .text          0x6d64de40        0x8 /opt/xmingw/lib/gcc-lib/i386-mingw32msvc/3.3.1/../../../../i386-mingw32msvc/lib/libuser32.a(dynvbs00253.o)
                0x6d64de40                GetDlgItemInt@16
 *fill*         0x6d64de48        0x8 00
 .text          0x6d64de50        0x8 /opt/xmingw/lib/gcc-lib/i386-mingw32msvc/3.3.1/../../../../i386-mingw32msvc/lib/libuser32.a(dynvbs00179.o)
                0x6d64de50                EnableWindow@8
 *fill*         0x6d64de58        0x8 00
 .text          0x6d64de60        0x8 /opt/xmingw/lib/gcc-lib/i386-mingw32msvc/3.3.1/../../../../i386-mingw32msvc/lib/libuser32.a(dynvbs00053.o)
                0x6d64de60                CheckDlgButton@12
 *fill*         0x6d64de68        0x8 00
 .text          0x6d64de70        0x8 /opt/xmingw/lib/gcc-lib/i386-mingw32msvc/3.3.1/../../../../i386-mingw32msvc/lib/libuser32.a(dynvbs00383.o)
                0x6d64de70                IsDlgButtonChecked@8
 *fill*         0x6d64de78        0x8 00
 .text          0x6d64de80        0x8 /opt/xmingw/lib/gcc-lib/i386-mingw32msvc/3.3.1/../../../../i386-mingw32msvc/lib/libuser32.a(dynvbs00247.o)
                0x6d64de80                GetDC@4
 *fill*         0x6d64de88        0x8 00
 .text          0x6d64de90        0x8 /opt/xmingw/lib/gcc-lib/i386-mingw32msvc/3.3.1/../../../../i386-mingw32msvc/lib/libuser32.a(dynvbs00483.o)
                0x6d64de90                ReleaseDC@8
 *fill*         0x6d64de98        0x8 00
 .text          0x6d64dea0        0x8 /opt/xmingw/lib/gcc-lib/i386-mingw32msvc/3.3.1/../../../../i386-mingw32msvc/lib/libuser32.a(dynvbs00249.o)
                0x6d64dea0                GetDesktopWindow@0
 *fill*         0x6d64dea8        0x8 00
 .text          0x6d64deb0        0x8 /opt/xmingw/lib/gcc-lib/i386-mingw32msvc/3.3.1/../../../../i386-mingw32msvc/lib/libuser32.a(dynvbs00346.o)
                0x6d64deb0                GetWindowRect@8
 *fill*         0x6d64deb8        0x8 00
 .text          0x6d64dec0        0x8 /opt/xmingw/lib/gcc-lib/i386-mingw32msvc/3.3.1/../../../../i386-mingw32msvc/lib/libuser32.a(dynvbs00438.o)
                0x6d64dec0                MoveWindow@24
 *fill*         0x6d64dec8        0x8 00
 .text          0x6d64ded0        0x8 /opt/xmingw/lib/gcc-lib/i386-mingw32msvc/3.3.1/../../../../i386-mingw32msvc/lib/libkernel32.a(dmivbs00421.o)
                0x6d64ded0                GetTickCount@0
 *fill*         0x6d64ded8        0x8 00
 .text          0x6d64dee0        0x8 /opt/xmingw/lib/gcc-lib/i386-mingw32msvc/3.3.1/../../../../i386-mingw32msvc/lib/libkernel32.a(dmivbs00196.o)
                0x6d64dee0                FindResourceA@12
 *fill*         0x6d64dee8        0x8 00
 .text          0x6d64def0        0x8 /opt/xmingw/lib/gcc-lib/i386-mingw32msvc/3.3.1/../../../../i386-mingw32msvc/lib/libkernel32.a(dmivbs00527.o)
                0x6d64def0                LoadResource@8
 *fill*         0x6d64def8        0x8 00
 .text          0x6d64df00        0x8 /opt/xmingw/lib/gcc-lib/i386-mingw32msvc/3.3.1/../../../../i386-mingw32msvc/lib/libkernel32.a(dmivbs00541.o)
                0x6d64df00                LockResource@4
 *fill*         0x6d64df08        0x8 00
 .text          0x6d64df10        0x8 /opt/xmingw/lib/gcc-lib/i386-mingw32msvc/3.3.1/../../../../i386-mingw32msvc/lib/libkernel32.a(dmivbs00523.o)
                0x6d64df10                LoadLibraryExA@12
 *fill*         0x6d64df18        0x8 00
 .text          0x6d64df20        0x8 /opt/xmingw/lib/gcc-lib/i386-mingw32msvc/3.3.1/../../../../i386-mingw32msvc/lib/libkernel32.a(dmivbs00213.o)
                0x6d64df20                FreeLibrary@4
 *fill*         0x6d64df28        0x8 00
 .text          0x6d64df30        0x8 /opt/xmingw/lib/gcc-lib/i386-mingw32msvc/3.3.1/../../../../i386-mingw32msvc/lib/libkernel32.a(dmivbs00323.o)
                0x6d64df30                GetLastError@0
 *fill*         0x6d64df38        0x8 00
 .text          0x6d64df40        0x8 /opt/xmingw/lib/gcc-lib/i386-mingw32msvc/3.3.1/../../../../i386-mingw32msvc/lib/libkernel32.a(dmivbs00208.o)
                0x6d64df40                FormatMessageA@28
 *fill*         0x6d64df48        0x8 00
 .text          0x6d64df50        0x8 /opt/xmingw/lib/gcc-lib/i386-mingw32msvc/3.3.1/../../../../i386-mingw32msvc/lib/libkernel32.a(dmivbs00019.o)
                0x6d64df50                BeginUpdateResourceA@8
 *fill*         0x6d64df58        0x8 00
 .text          0x6d64df60        0x8 /opt/xmingw/lib/gcc-lib/i386-mingw32msvc/3.3.1/../../../../i386-mingw32msvc/lib/libkernel32.a(dmivbs00746.o)
                0x6d64df60                SizeofResource@8
 *fill*         0x6d64df68        0x8 00
 .text          0x6d64df70        0x8 /opt/xmingw/lib/gcc-lib/i386-mingw32msvc/3.3.1/../../../../i386-mingw32msvc/lib/libkernel32.a(dmivbs00776.o)
                0x6d64df70                UpdateResourceA@24
 *fill*         0x6d64df78        0x8 00
 .text          0x6d64df80        0x8 /opt/xmingw/lib/gcc-lib/i386-mingw32msvc/3.3.1/../../../../i386-mingw32msvc/lib/libkernel32.a(dmivbs00123.o)
                0x6d64df80                EndUpdateResourceA@8
 *fill*         0x6d64df88        0x8 00
 .text          0x6d64df90        0x8 /opt/xmingw/lib/gcc-lib/i386-mingw32msvc/3.3.1/../../../../i386-mingw32msvc/lib/libkernel32.a(dmivbs00333.o)
                0x6d64df90                GetModuleFileNameA@12
 *fill*         0x6d64df98        0x8 00
 .text          0x6d64dfa0        0x8 /opt/xmingw/lib/gcc-lib/i386-mingw32msvc/3.3.1/../../../../i386-mingw32msvc/lib/libkernel32.a(dmivbs00053.o)
                0x6d64dfa0                CopyFileA@12
 *fill*         0x6d64dfa8        0x8 00
 .text          0x6d64dfb0        0x8 /opt/xmingw/lib/gcc-lib/i386-mingw32msvc/3.3.1/../../../../i386-mingw32msvc/lib/libkernel32.a(dmivbs00038.o)
                0x6d64dfb0                CloseHandle@4
 *fill*         0x6d64dfb8        0x8 00
 .text          0x6d64dfc0        0x8 /opt/xmingw/lib/gcc-lib/i386-mingw32msvc/3.3.1/../../../../i386-mingw32msvc/lib/libkernel32.a(dmivbs00822.o)
                0x6d64dfc0                WriteFile@20
 *fill*         0x6d64dfc8        0x8 00
 .text          0x6d64dfd0        0x8 /opt/xmingw/lib/gcc-lib/i386-mingw32msvc/3.3.1/../../../../i386-mingw32msvc/lib/libkernel32.a(dmivbs00613.o)
                0x6d64dfd0                ReadFile@20
 *fill*         0x6d64dfd8        0x8 00
 .text          0x6d64dfe0        0x8 /opt/xmingw/lib/gcc-lib/i386-mingw32msvc/3.3.1/../../../../i386-mingw32msvc/lib/libkernel32.a(dmivbs00068.o)
                0x6d64dfe0                CreateFileA@28
 *fill*         0x6d64dfe8        0x8 00
 .text          0x6d64dff0        0x8 /opt/xmingw/lib/gcc-lib/i386-mingw32msvc/3.3.1/../../../../i386-mingw32msvc/lib/libkernel32.a(dmivbs00108.o)
                0x6d64dff0                DeleteFileA@4
 *fill*         0x6d64dff8        0x8 00
 .text          0x6d64e000        0x8 /opt/xmingw/lib/gcc-lib/i386-mingw32msvc/3.3.1/../../../../i386-mingw32msvc/lib/libkernel32.a(dmivbs00699.o)
                0x6d64e000                SetFilePointer@16
 *fill*         0x6d64e008        0x8 00
 .text          0x6d64e010        0x8 /opt/xmingw/lib/gcc-lib/i386-mingw32msvc/3.3.1/../../../../i386-mingw32msvc/lib/libkernel32.a(dmivbs00311.o)
                0x6d64e010                GetFileSize@8
 *fill*         0x6d64e018        0x8 00
 .text          0x6d64e020        0x8 /opt/xmingw/lib/gcc-lib/i386-mingw32msvc/3.3.1/../../../../i386-mingw32msvc/lib/libkernel32.a(dmivbs00690.o)
                0x6d64e020                SetEndOfFile@4
 *fill*         0x6d64e028        0x8 00
 .text          0x6d64e030        0x8 /opt/xmingw/lib/gcc-lib/i386-mingw32msvc/3.3.1/../../../../i386-mingw32msvc/lib/libkernel32.a(dmivbs00431.o)
                0x6d64e030                GetVersionExA@4
 *fill*         0x6d64e038        0x8 00
 .text          0x6d64e040        0x8 /opt/xmingw/lib/gcc-lib/i386-mingw32msvc/3.3.1/../../../../i386-mingw32msvc/lib/libkernel32.a(dmivbs00175.o)
                0x6d64e040                FindAtomA@4
 *fill*         0x6d64e048        0x8 00
 .text          0x6d64e050        0x8 /opt/xmingw/lib/gcc-lib/i386-mingw32msvc/3.3.1/../../../../i386-mingw32msvc/lib/libkernel32.a(dmivbs00001.o)
                0x6d64e050                AddAtomA@4
 *fill*         0x6d64e058        0x8 00
 .text          0x6d64e060        0x8 /opt/xmingw/lib/gcc-lib/i386-mingw32msvc/3.3.1/../../../../i386-mingw32msvc/lib/libkernel32.a(dmivbs00220.o)
                0x6d64e060                GetAtomNameA@12
 *fill*         0x6d64e068        0x8 00
 .text          0x6d64e070       0x10 /opt/xmingw/lib/gcc-lib/i386-mingw32msvc/3.3.1/crtend.o
 *(SORT(.text$*))
 *(.glue_7t)
 *(.glue_7)
                0x6d64e080                ___CTOR_LIST__ = .
                0x6d64e080                __CTOR_LIST__ = .
                0x6d64e080        0x4 LONG 0xffffffff
 *(SORT(.ctors.*))
 *(.ctors)
 .ctors         0x6d64e084        0x4 /opt/xmingw/lib/gcc-lib/i386-mingw32msvc/3.3.1/crtend.o
 *(.ctor)
                0x6d64e088        0x4 LONG 0x0
                0x6d64e08c                ___DTOR_LIST__ = .
                0x6d64e08c                __DTOR_LIST__ = .
                0x6d64e08c        0x4 LONG 0xffffffff
 *(SORT(.dtors.*))
 *(.dtors)
 *(.dtor)
                0x6d64e090        0x4 LONG 0x0
 *(.fini)
 *(.gcc_exc)
                0x6d64e094                PROVIDE (etext, .)
 *(.gcc_except_table)

.data           0x6d64f000     0x1c00
                0x6d64f000                __data_start__ = .
 *(.data)
 .data          0x6d64f000       0x10 main.o
                0x6d64f000                defaultexpr
 .data          0x6d64f010       0x80 ui.o
                0x6d64f010                doupdates
 .data          0x6d64f090       0x10 save.o
 .data          0x6d64f0a0       0x10 lexer.o
 .data          0x6d64f0b0      0x240 funcs.o
                0x6d64f0b0                predefs
 .data          0x6d64f2f0     0x1800 trigtab.o
                0x6d64f2f0                costab
                0x6d6502f0                tantab
 .data          0x6d650af0       0x20 ../common/tt/file_compat_win.o
 .data          0x6d650b10       0x10 /opt/xmingw/lib/gcc-lib/i386-mingw32msvc/3.3.1/../../../../i386-mingw32msvc/lib/libmingw32.a(gccmain.o)
 .data          0x6d650b20       0x10 /opt/xmingw/lib/gcc-lib/i386-mingw32msvc/3.3.1/libgcc.a(w32-shared-ptr.o)
 *(.data2)
 *(SORT(.data$*))
                0x6d650b30                __data_end__ = .
 *(.data_cygwin_nocopy)

.rdata          0x6d651000        0x0
 *(.rdata)
 *(SORT(.rdata$*))
 *(.eh_frame)
                0x6d651000                ___RUNTIME_PSEUDO_RELOC_LIST__ = .
                0x6d651000                __RUNTIME_PSEUDO_RELOC_LIST__ = .
 *(.rdata_runtime_pseudo_reloc)
                0x6d651000                ___RUNTIME_PSEUDO_RELOC_LIST_END__ = .
                0x6d651000                __RUNTIME_PSEUDO_RELOC_LIST_END__ = .

.pdata
 *(.pdata)

.bss            0x6d651000     0x2420
                0x6d651000                __bss_start__ = .
 *(.bss)
 .bss           0x6d651000       0x20 /opt/xmingw/lib/gcc-lib/i386-mingw32msvc/3.3.1/../../../../i386-mingw32msvc/lib/dllcrt2.o
 .bss           0x6d651020       0x10 main.o
 .bss           0x6d651030       0x50 ui_win.o
 .bss           0x6d651080       0x10 preview.o
                0x6d651080                preview_complete
 .bss           0x6d651090       0x90 lexer.o
                0x6d651090                yyin
                0x6d651094                yyout
 .bss           0x6d651120       0x10 funcs.o
                0x6d651120                zero_val
 .bss           0x6d651130       0x10 ../common/adobeplugin/dllmain.o
                0x6d651130                hDllInstance
 .bss           0x6d651140       0x10 /opt/xmingw/lib/gcc-lib/i386-mingw32msvc/3.3.1/../../../../i386-mingw32msvc/lib/libmingw32.a(gccmain.o)
 .bss           0x6d651150       0x10 /opt/xmingw/lib/gcc-lib/i386-mingw32msvc/3.3.1/../../../../i386-mingw32msvc/lib/libmingw32.a(pseudo-reloc-list.o)
 .bss           0x6d651160       0x20 /opt/xmingw/lib/gcc-lib/i386-mingw32msvc/3.3.1/libgcc.a(w32-shared-ptr.o)
 *(COMMON)
 COMMON         0x6d651180     0x14d0 main.o
                                  0x0 (size before relaxing)
                0x6d651180                map
                0x6d652180                errstart
                0x6d652190                cell
                0x6d652590                srcradused
                0x6d6525a0                gpb
                0x6d6525b0                errpos
                0x6d6525c0                err
                0x6d6525d0                gdata
                0x6d6525e0                expr
                0x6d6525f0                chunksize
                0x6d652600                nplanes
                0x6d652610                toprow
                0x6d652620                slider
                0x6d652640                tree
 COMMON         0x6d652650       0x10 ui_win.o
                                  0x0 (size before relaxing)
                0x6d652650                preview_hwnd
 COMMON         0x6d652660       0x20 ui.o
                                  0x0 (size before relaxing)
                0x6d652660                zoomfactor
                0x6d652670                fitzoom
 COMMON         0x6d652680       0x30 ui_build.o
                                  0x0 (size before relaxing)
                0x6d652680                ctls
                0x6d6526a0                maps
 COMMON         0x6d6526b0       0xb0 preview.o
                                  0x0 (size before relaxing)
                0x6d6526b0                preview_rect
                0x6d6526c0                preview_handle
                0x6d6526d0                preview_h
                0x6d6526e0                preview_w
                0x6d6526f0                preview_pmap
                0x6d652730                preview_scroll
                0x6d652740                preview_pmask
 COMMON         0x6d652760      0x1f0 parser.o
                                  0x0 (size before relaxing)
                0x6d652760                yychar
                0x6d652770                errstr
                0x6d652780                inarglist
                0x6d652910                arglistptr
                0x6d652920                parsetree
                0x6d652930                yynerrs
                0x6d652940                yylval
 COMMON         0x6d652950       0x40 lexer.o
                                  0x0 (size before relaxing)
                0x6d652950                tokstart
                0x6d652960                yyleng
                0x6d652970                tokpos
                0x6d652980                yytext
 COMMON         0x6d652990      0x820 node.o
                                  0x0 (size before relaxing)
                0x6d652990                varused
                0x6d652d90                var
                0x6d653190                node_list
                0x6d6531a0                allocs
 COMMON         0x6d6531b0      0x200 symtab.o
                                  0x0 (size before relaxing)
                0x6d6531b0                hash_table
 COMMON         0x6d6533b0       0x10 process.o
                                  0x0 (size before relaxing)
                0x6d6533b0                needinput
 COMMON         0x6d6533c0       0x10 make.o
                                  0x0 (size before relaxing)
                0x6d6533c0                event_id
 COMMON         0x6d6533d0       0x30 /opt/xmingw/lib/gcc-lib/i386-mingw32msvc/3.3.1/libgcc.a(w32-shared-ptr.o)
                                  0x0 (size before relaxing)
                0x6d6533d0                __w32_sharedptr_terminate
                0x6d6533e0                __w32_sharedptr
                0x6d6533f0                __w32_sharedptr_unexpected
 COMMON         0x6d653400       0x20 /opt/xmingw/lib/gcc-lib/i386-mingw32msvc/3.3.1/libgcc.a(_ctors.o)
                                  0x0 (size before relaxing)
                0x6d653420                __bss_end__ = .

.edata          0x6d654000      0x200
 *(.edata)
 .edata         0x6d654000       0x54 FilterFoundry.exp
 .edata         0x6d654054       0x4f dll stuff

/DISCARD/
 *(.debug$S)
 *(.debug$T)
 *(.debug$F)
 *(.drectve)

.idata          0x6d655000      0xc00
 SORT(*)(.idata$2)
 .idata$2       0x6d655000       0x14 /opt/xmingw/lib/gcc-lib/i386-mingw32msvc/3.3.1/../../../../i386-mingw32msvc/lib/libcomdlg32.a(dkfvbh.o)
                0x6d655000                _head_libcomdlg32_a
 .idata$2       0x6d655014       0x14 /opt/xmingw/lib/gcc-lib/i386-mingw32msvc/3.3.1/../../../../i386-mingw32msvc/lib/libgdi32.a(dihvbh.o)
                0x6d655014                _head_libgdi32_a
 .idata$2       0x6d655028       0x14 /opt/xmingw/lib/gcc-lib/i386-mingw32msvc/3.3.1/../../../../i386-mingw32msvc/lib/libkernel32.a(dmivbh.o)
                0x6d655028                _head_libkernel32_a
 .idata$2       0x6d65503c       0x14 /opt/xmingw/lib/gcc-lib/i386-mingw32msvc/3.3.1/../../../../i386-mingw32msvc/lib/libmsvcrt.a(dznch.o)
                0x6d65503c                _head_libmsvcrt_a
 .idata$2       0x6d655050       0x14 /opt/xmingw/lib/gcc-lib/i386-mingw32msvc/3.3.1/../../../../i386-mingw32msvc/lib/libuser32.a(dynvbh.o)
                0x6d655050                _head_libuser32_a
 SORT(*)(.idata$3)
                0x6d655064        0x4 LONG 0x0
                0x6d655068        0x4 LONG 0x0
                0x6d65506c        0x4 LONG 0x0
                0x6d655070        0x4 LONG 0x0
                0x6d655074        0x4 LONG 0x0
 SORT(*)(.idata$4)
 .idata$4       0x6d655078        0x4 /opt/xmingw/lib/gcc-lib/i386-mingw32msvc/3.3.1/../../../../i386-mingw32msvc/lib/libcomdlg32.a(dkfvbh.o)
 .idata$4       0x6d65507c        0x4 /opt/xmingw/lib/gcc-lib/i386-mingw32msvc/3.3.1/../../../../i386-mingw32msvc/lib/libcomdlg32.a(dkfvbs00009.o)
 .idata$4       0x6d655080        0x4 /opt/xmingw/lib/gcc-lib/i386-mingw32msvc/3.3.1/../../../../i386-mingw32msvc/lib/libcomdlg32.a(dkfvbs00011.o)
 .idata$4       0x6d655084        0x4 /opt/xmingw/lib/gcc-lib/i386-mingw32msvc/3.3.1/../../../../i386-mingw32msvc/lib/libcomdlg32.a(dkfvbt.o)
 .idata$4       0x6d655088        0x4 /opt/xmingw/lib/gcc-lib/i386-mingw32msvc/3.3.1/../../../../i386-mingw32msvc/lib/libgdi32.a(dihvbh.o)
 .idata$4       0x6d65508c        0x4 /opt/xmingw/lib/gcc-lib/i386-mingw32msvc/3.3.1/../../../../i386-mingw32msvc/lib/libgdi32.a(dihvbs00038.o)
 .idata$4       0x6d655090        0x4 /opt/xmingw/lib/gcc-lib/i386-mingw32msvc/3.3.1/../../../../i386-mingw32msvc/lib/libgdi32.a(dihvbs00072.o)
 .idata$4       0x6d655094        0x4 /opt/xmingw/lib/gcc-lib/i386-mingw32msvc/3.3.1/../../../../i386-mingw32msvc/lib/libgdi32.a(dihvbs00195.o)
 .idata$4       0x6d655098        0x4 /opt/xmingw/lib/gcc-lib/i386-mingw32msvc/3.3.1/../../../../i386-mingw32msvc/lib/libgdi32.a(dihvbt.o)
 .idata$4       0x6d65509c        0x4 /opt/xmingw/lib/gcc-lib/i386-mingw32msvc/3.3.1/../../../../i386-mingw32msvc/lib/libkernel32.a(dmivbh.o)
 .idata$4       0x6d6550a0        0x4 /opt/xmingw/lib/gcc-lib/i386-mingw32msvc/3.3.1/../../../../i386-mingw32msvc/lib/libkernel32.a(dmivbs00001.o)
 .idata$4       0x6d6550a4        0x4 /opt/xmingw/lib/gcc-lib/i386-mingw32msvc/3.3.1/../../../../i386-mingw32msvc/lib/libkernel32.a(dmivbs00019.o)
 .idata$4       0x6d6550a8        0x4 /opt/xmingw/lib/gcc-lib/i386-mingw32msvc/3.3.1/../../../../i386-mingw32msvc/lib/libkernel32.a(dmivbs00038.o)
 .idata$4       0x6d6550ac        0x4 /opt/xmingw/lib/gcc-lib/i386-mingw32msvc/3.3.1/../../../../i386-mingw32msvc/lib/libkernel32.a(dmivbs00053.o)
 .idata$4       0x6d6550b0        0x4 /opt/xmingw/lib/gcc-lib/i386-mingw32msvc/3.3.1/../../../../i386-mingw32msvc/lib/libkernel32.a(dmivbs00068.o)
 .idata$4       0x6d6550b4        0x4 /opt/xmingw/lib/gcc-lib/i386-mingw32msvc/3.3.1/../../../../i386-mingw32msvc/lib/libkernel32.a(dmivbs00108.o)
 .idata$4       0x6d6550b8        0x4 /opt/xmingw/lib/gcc-lib/i386-mingw32msvc/3.3.1/../../../../i386-mingw32msvc/lib/libkernel32.a(dmivbs00123.o)
 .idata$4       0x6d6550bc        0x4 /opt/xmingw/lib/gcc-lib/i386-mingw32msvc/3.3.1/../../../../i386-mingw32msvc/lib/libkernel32.a(dmivbs00175.o)
 .idata$4       0x6d6550c0        0x4 /opt/xmingw/lib/gcc-lib/i386-mingw32msvc/3.3.1/../../../../i386-mingw32msvc/lib/libkernel32.a(dmivbs00196.o)
 .idata$4       0x6d6550c4        0x4 /opt/xmingw/lib/gcc-lib/i386-mingw32msvc/3.3.1/../../../../i386-mingw32msvc/lib/libkernel32.a(dmivbs00208.o)
 .idata$4       0x6d6550c8        0x4 /opt/xmingw/lib/gcc-lib/i386-mingw32msvc/3.3.1/../../../../i386-mingw32msvc/lib/libkernel32.a(dmivbs00213.o)
 .idata$4       0x6d6550cc        0x4 /opt/xmingw/lib/gcc-lib/i386-mingw32msvc/3.3.1/../../../../i386-mingw32msvc/lib/libkernel32.a(dmivbs00220.o)
 .idata$4       0x6d6550d0        0x4 /opt/xmingw/lib/gcc-lib/i386-mingw32msvc/3.3.1/../../../../i386-mingw32msvc/lib/libkernel32.a(dmivbs00311.o)
 .idata$4       0x6d6550d4        0x4 /opt/xmingw/lib/gcc-lib/i386-mingw32msvc/3.3.1/../../../../i386-mingw32msvc/lib/libkernel32.a(dmivbs00323.o)
 .idata$4       0x6d6550d8        0x4 /opt/xmingw/lib/gcc-lib/i386-mingw32msvc/3.3.1/../../../../i386-mingw32msvc/lib/libkernel32.a(dmivbs00333.o)
 .idata$4       0x6d6550dc        0x4 /opt/xmingw/lib/gcc-lib/i386-mingw32msvc/3.3.1/../../../../i386-mingw32msvc/lib/libkernel32.a(dmivbs00421.o)
 .idata$4       0x6d6550e0        0x4 /opt/xmingw/lib/gcc-lib/i386-mingw32msvc/3.3.1/../../../../i386-mingw32msvc/lib/libkernel32.a(dmivbs00431.o)
 .idata$4       0x6d6550e4        0x4 /opt/xmingw/lib/gcc-lib/i386-mingw32msvc/3.3.1/../../../../i386-mingw32msvc/lib/libkernel32.a(dmivbs00523.o)
 .idata$4       0x6d6550e8        0x4 /opt/xmingw/lib/gcc-lib/i386-mingw32msvc/3.3.1/../../../../i386-mingw32msvc/lib/libkernel32.a(dmivbs00527.o)
 .idata$4       0x6d6550ec        0x4 /opt/xmingw/lib/gcc-lib/i386-mingw32msvc/3.3.1/../../../../i386-mingw32msvc/lib/libkernel32.a(dmivbs00541.o)
 .idata$4       0x6d6550f0        0x4 /opt/xmingw/lib/gcc-lib/i386-mingw32msvc/3.3.1/../../../../i386-mingw32msvc/lib/libkernel32.a(dmivbs00613.o)
 .idata$4       0x6d6550f4        0x4 /opt/xmingw/lib/gcc-lib/i386-mingw32msvc/3.3.1/../../../../i386-mingw32msvc/lib/libkernel32.a(dmivbs00690.o)
 .idata$4       0x6d6550f8        0x4 /opt/xmingw/lib/gcc-lib/i386-mingw32msvc/3.3.1/../../../../i386-mingw32msvc/lib/libkernel32.a(dmivbs00699.o)
 .idata$4       0x6d6550fc        0x4 /opt/xmingw/lib/gcc-lib/i386-mingw32msvc/3.3.1/../../../../i386-mingw32msvc/lib/libkernel32.a(dmivbs00746.o)
 .idata$4       0x6d655100        0x4 /opt/xmingw/lib/gcc-lib/i386-mingw32msvc/3.3.1/../../../../i386-mingw32msvc/lib/libkernel32.a(dmivbs00776.o)
 .idata$4       0x6d655104        0x4 /opt/xmingw/lib/gcc-lib/i386-mingw32msvc/3.3.1/../../../../i386-mingw32msvc/lib/libkernel32.a(dmivbs00822.o)
 .idata$4       0x6d655108        0x4 /opt/xmingw/lib/gcc-lib/i386-mingw32msvc/3.3.1/../../../../i386-mingw32msvc/lib/libkernel32.a(dmivbt.o)
 .idata$4       0x6d65510c        0x4 /opt/xmingw/lib/gcc-lib/i386-mingw32msvc/3.3.1/../../../../i386-mingw32msvc/lib/libmsvcrt.a(dznch.o)
 .idata$4       0x6d655110        0x4 /opt/xmingw/lib/gcc-lib/i386-mingw32msvc/3.3.1/../../../../i386-mingw32msvc/lib/libmsvcrt.a(dzncs00036.o)
 .idata$4       0x6d655114        0x4 /opt/xmingw/lib/gcc-lib/i386-mingw32msvc/3.3.1/../../../../i386-mingw32msvc/lib/libmsvcrt.a(dzncs00047.o)
 .idata$4       0x6d655118        0x4 /opt/xmingw/lib/gcc-lib/i386-mingw32msvc/3.3.1/../../../../i386-mingw32msvc/lib/libmsvcrt.a(dzncs00147.o)
 .idata$4       0x6d65511c        0x4 /opt/xmingw/lib/gcc-lib/i386-mingw32msvc/3.3.1/../../../../i386-mingw32msvc/lib/libmsvcrt.a(dzncs00176.o)
 .idata$4       0x6d655120        0x4 /opt/xmingw/lib/gcc-lib/i386-mingw32msvc/3.3.1/../../../../i386-mingw32msvc/lib/libmsvcrt.a(dzncs00222.o)
 .idata$4       0x6d655124        0x4 /opt/xmingw/lib/gcc-lib/i386-mingw32msvc/3.3.1/../../../../i386-mingw32msvc/lib/libmsvcrt.a(dzncs00224.o)
 .idata$4       0x6d655128        0x4 /opt/xmingw/lib/gcc-lib/i386-mingw32msvc/3.3.1/../../../../i386-mingw32msvc/lib/libmsvcrt.a(dzncs00344.o)
 .idata$4       0x6d65512c        0x4 /opt/xmingw/lib/gcc-lib/i386-mingw32msvc/3.3.1/../../../../i386-mingw32msvc/lib/libmsvcrt.a(dzncs00395.o)
 .idata$4       0x6d655130        0x4 /opt/xmingw/lib/gcc-lib/i386-mingw32msvc/3.3.1/../../../../i386-mingw32msvc/lib/libmsvcrt.a(dzncs00510.o)
 .idata$4       0x6d655134        0x4 /opt/xmingw/lib/gcc-lib/i386-mingw32msvc/3.3.1/../../../../i386-mingw32msvc/lib/libmsvcrt.a(dzncs00516.o)
 .idata$4       0x6d655138        0x4 /opt/xmingw/lib/gcc-lib/i386-mingw32msvc/3.3.1/../../../../i386-mingw32msvc/lib/libmsvcrt.a(dzncs00519.o)
 .idata$4       0x6d65513c        0x4 /opt/xmingw/lib/gcc-lib/i386-mingw32msvc/3.3.1/../../../../i386-mingw32msvc/lib/libmsvcrt.a(dzncs00526.o)
 .idata$4       0x6d655140        0x4 /opt/xmingw/lib/gcc-lib/i386-mingw32msvc/3.3.1/../../../../i386-mingw32msvc/lib/libmsvcrt.a(dzncs00531.o)
 .idata$4       0x6d655144        0x4 /opt/xmingw/lib/gcc-lib/i386-mingw32msvc/3.3.1/../../../../i386-mingw32msvc/lib/libmsvcrt.a(dzncs00537.o)
 .idata$4       0x6d655148        0x4 /opt/xmingw/lib/gcc-lib/i386-mingw32msvc/3.3.1/../../../../i386-mingw32msvc/lib/libmsvcrt.a(dzncs00543.o)
 .idata$4       0x6d65514c        0x4 /opt/xmingw/lib/gcc-lib/i386-mingw32msvc/3.3.1/../../../../i386-mingw32msvc/lib/libmsvcrt.a(dzncs00546.o)
 .idata$4       0x6d655150        0x4 /opt/xmingw/lib/gcc-lib/i386-mingw32msvc/3.3.1/../../../../i386-mingw32msvc/lib/libmsvcrt.a(dzncs00552.o)
 .idata$4       0x6d655154        0x4 /opt/xmingw/lib/gcc-lib/i386-mingw32msvc/3.3.1/../../../../i386-mingw32msvc/lib/libmsvcrt.a(dzncs00554.o)
 .idata$4       0x6d655158        0x4 /opt/xmingw/lib/gcc-lib/i386-mingw32msvc/3.3.1/../../../../i386-mingw32msvc/lib/libmsvcrt.a(dzncs00596.o)
 .idata$4       0x6d65515c        0x4 /opt/xmingw/lib/gcc-lib/i386-mingw32msvc/3.3.1/../../../../i386-mingw32msvc/lib/libmsvcrt.a(dzncs00603.o)
 .idata$4       0x6d655160        0x4 /opt/xmingw/lib/gcc-lib/i386-mingw32msvc/3.3.1/../../../../i386-mingw32msvc/lib/libmsvcrt.a(dzncs00609.o)
 .idata$4       0x6d655164        0x4 /opt/xmingw/lib/gcc-lib/i386-mingw32msvc/3.3.1/../../../../i386-mingw32msvc/lib/libmsvcrt.a(dzncs00610.o)
 .idata$4       0x6d655168        0x4 /opt/xmingw/lib/gcc-lib/i386-mingw32msvc/3.3.1/../../../../i386-mingw32msvc/lib/libmsvcrt.a(dzncs00611.o)
 .idata$4       0x6d65516c        0x4 /opt/xmingw/lib/gcc-lib/i386-mingw32msvc/3.3.1/../../../../i386-mingw32msvc/lib/libmsvcrt.a(dzncs00616.o)
 .idata$4       0x6d655170        0x4 /opt/xmingw/lib/gcc-lib/i386-mingw32msvc/3.3.1/../../../../i386-mingw32msvc/lib/libmsvcrt.a(dzncs00619.o)
 .idata$4       0x6d655174        0x4 /opt/xmingw/lib/gcc-lib/i386-mingw32msvc/3.3.1/../../../../i386-mingw32msvc/lib/libmsvcrt.a(dzncs00624.o)
 .idata$4       0x6d655178        0x4 /opt/xmingw/lib/gcc-lib/i386-mingw32msvc/3.3.1/../../../../i386-mingw32msvc/lib/libmsvcrt.a(dzncs00625.o)
 .idata$4       0x6d65517c        0x4 /opt/xmingw/lib/gcc-lib/i386-mingw32msvc/3.3.1/../../../../i386-mingw32msvc/lib/libmsvcrt.a(dzncs00634.o)
 .idata$4       0x6d655180        0x4 /opt/xmingw/lib/gcc-lib/i386-mingw32msvc/3.3.1/../../../../i386-mingw32msvc/lib/libmsvcrt.a(dzncs00636.o)
 .idata$4       0x6d655184        0x4 /opt/xmingw/lib/gcc-lib/i386-mingw32msvc/3.3.1/../../../../i386-mingw32msvc/lib/libmsvcrt.a(dzncs00638.o)
 .idata$4       0x6d655188        0x4 /opt/xmingw/lib/gcc-lib/i386-mingw32msvc/3.3.1/../../../../i386-mingw32msvc/lib/libmsvcrt.a(dzncs00640.o)
 .idata$4       0x6d65518c        0x4 /opt/xmingw/lib/gcc-lib/i386-mingw32msvc/3.3.1/../../../../i386-mingw32msvc/lib/libmsvcrt.a(dzncs00642.o)
 .idata$4       0x6d655190        0x4 /opt/xmingw/lib/gcc-lib/i386-mingw32msvc/3.3.1/../../../../i386-mingw32msvc/lib/libmsvcrt.a(dzncs00644.o)
 .idata$4       0x6d655194        0x4 /opt/xmingw/lib/gcc-lib/i386-mingw32msvc/3.3.1/../../../../i386-mingw32msvc/lib/libmsvcrt.a(dzncs00648.o)
 .idata$4       0x6d655198        0x4 /opt/xmingw/lib/gcc-lib/i386-mingw32msvc/3.3.1/../../../../i386-mingw32msvc/lib/libmsvcrt.a(dzncs00670.o)
 .idata$4       0x6d65519c        0x4 /opt/xmingw/lib/gcc-lib/i386-mingw32msvc/3.3.1/../../../../i386-mingw32msvc/lib/libmsvcrt.a(dznct.o)
 .idata$4       0x6d6551a0        0x4 /opt/xmingw/lib/gcc-lib/i386-mingw32msvc/3.3.1/../../../../i386-mingw32msvc/lib/libuser32.a(dynvbh.o)
 .idata$4       0x6d6551a4        0x4 /opt/xmingw/lib/gcc-lib/i386-mingw32msvc/3.3.1/../../../../i386-mingw32msvc/lib/libuser32.a(dynvbs00053.o)
 .idata$4       0x6d6551a8        0x4 /opt/xmingw/lib/gcc-lib/i386-mingw32msvc/3.3.1/../../../../i386-mingw32msvc/lib/libuser32.a(dynvbs00146.o)
 .idata$4       0x6d6551ac        0x4 /opt/xmingw/lib/gcc-lib/i386-mingw32msvc/3.3.1/../../../../i386-mingw32msvc/lib/libuser32.a(dynvbs00179.o)
 .idata$4       0x6d6551b0        0x4 /opt/xmingw/lib/gcc-lib/i386-mingw32msvc/3.3.1/../../../../i386-mingw32msvc/lib/libuser32.a(dynvbs00181.o)
 .idata$4       0x6d6551b4        0x4 /opt/xmingw/lib/gcc-lib/i386-mingw32msvc/3.3.1/../../../../i386-mingw32msvc/lib/libuser32.a(dynvbs00235.o)
 .idata$4       0x6d6551b8        0x4 /opt/xmingw/lib/gcc-lib/i386-mingw32msvc/3.3.1/../../../../i386-mingw32msvc/lib/libuser32.a(dynvbs00246.o)
 .idata$4       0x6d6551bc        0x4 /opt/xmingw/lib/gcc-lib/i386-mingw32msvc/3.3.1/../../../../i386-mingw32msvc/lib/libuser32.a(dynvbs00247.o)
 .idata$4       0x6d6551c0        0x4 /opt/xmingw/lib/gcc-lib/i386-mingw32msvc/3.3.1/../../../../i386-mingw32msvc/lib/libuser32.a(dynvbs00249.o)
 .idata$4       0x6d6551c4        0x4 /opt/xmingw/lib/gcc-lib/i386-mingw32msvc/3.3.1/../../../../i386-mingw32msvc/lib/libuser32.a(dynvbs00251.o)
 .idata$4       0x6d6551c8        0x4 /opt/xmingw/lib/gcc-lib/i386-mingw32msvc/3.3.1/../../../../i386-mingw32msvc/lib/libuser32.a(dynvbs00252.o)
 .idata$4       0x6d6551cc        0x4 /opt/xmingw/lib/gcc-lib/i386-mingw32msvc/3.3.1/../../../../i386-mingw32msvc/lib/libuser32.a(dynvbs00253.o)
 .idata$4       0x6d6551d0        0x4 /opt/xmingw/lib/gcc-lib/i386-mingw32msvc/3.3.1/../../../../i386-mingw32msvc/lib/libuser32.a(dynvbs00254.o)
 .idata$4       0x6d6551d4        0x4 /opt/xmingw/lib/gcc-lib/i386-mingw32msvc/3.3.1/../../../../i386-mingw32msvc/lib/libuser32.a(dynvbs00346.o)
 .idata$4       0x6d6551d8        0x4 /opt/xmingw/lib/gcc-lib/i386-mingw32msvc/3.3.1/../../../../i386-mingw32msvc/lib/libuser32.a(dynvbs00383.o)
 .idata$4       0x6d6551dc        0x4 /opt/xmingw/lib/gcc-lib/i386-mingw32msvc/3.3.1/../../../../i386-mingw32msvc/lib/libuser32.a(dynvbs00429.o)
 .idata$4       0x6d6551e0        0x4 /opt/xmingw/lib/gcc-lib/i386-mingw32msvc/3.3.1/../../../../i386-mingw32msvc/lib/libuser32.a(dynvbs00430.o)
 .idata$4       0x6d6551e4        0x4 /opt/xmingw/lib/gcc-lib/i386-mingw32msvc/3.3.1/../../../../i386-mingw32msvc/lib/libuser32.a(dynvbs00438.o)
 .idata$4       0x6d6551e8        0x4 /opt/xmingw/lib/gcc-lib/i386-mingw32msvc/3.3.1/../../../../i386-mingw32msvc/lib/libuser32.a(dynvbs00482.o)
 .idata$4       0x6d6551ec        0x4 /opt/xmingw/lib/gcc-lib/i386-mingw32msvc/3.3.1/../../../../i386-mingw32msvc/lib/libuser32.a(dynvbs00483.o)
 .idata$4       0x6d6551f0        0x4 /opt/xmingw/lib/gcc-lib/i386-mingw32msvc/3.3.1/../../../../i386-mingw32msvc/lib/libuser32.a(dynvbs00494.o)
 .idata$4       0x6d6551f4        0x4 /opt/xmingw/lib/gcc-lib/i386-mingw32msvc/3.3.1/../../../../i386-mingw32msvc/lib/libuser32.a(dynvbs00506.o)
 .idata$4       0x6d6551f8        0x4 /opt/xmingw/lib/gcc-lib/i386-mingw32msvc/3.3.1/../../../../i386-mingw32msvc/lib/libuser32.a(dynvbs00518.o)
 .idata$4       0x6d6551fc        0x4 /opt/xmingw/lib/gcc-lib/i386-mingw32msvc/3.3.1/../../../../i386-mingw32msvc/lib/libuser32.a(dynvbs00519.o)
 .idata$4       0x6d655200        0x4 /opt/xmingw/lib/gcc-lib/i386-mingw32msvc/3.3.1/../../../../i386-mingw32msvc/lib/libuser32.a(dynvbs00522.o)
 .idata$4       0x6d655204        0x4 /opt/xmingw/lib/gcc-lib/i386-mingw32msvc/3.3.1/../../../../i386-mingw32msvc/lib/libuser32.a(dynvbs00574.o)
 .idata$4       0x6d655208        0x4 /opt/xmingw/lib/gcc-lib/i386-mingw32msvc/3.3.1/../../../../i386-mingw32msvc/lib/libuser32.a(dynvbt.o)
 SORT(*)(.idata$5)
 .idata$5       0x6d65520c        0x4 /opt/xmingw/lib/gcc-lib/i386-mingw32msvc/3.3.1/../../../../i386-mingw32msvc/lib/libcomdlg32.a(dkfvbh.o)
 .idata$5       0x6d655210        0x4 /opt/xmingw/lib/gcc-lib/i386-mingw32msvc/3.3.1/../../../../i386-mingw32msvc/lib/libcomdlg32.a(dkfvbs00009.o)
                0x6d655210                _imp__GetOpenFileNameA@4
 .idata$5       0x6d655214        0x4 /opt/xmingw/lib/gcc-lib/i386-mingw32msvc/3.3.1/../../../../i386-mingw32msvc/lib/libcomdlg32.a(dkfvbs00011.o)
                0x6d655214                _imp__GetSaveFileNameA@4
 .idata$5       0x6d655218        0x4 /opt/xmingw/lib/gcc-lib/i386-mingw32msvc/3.3.1/../../../../i386-mingw32msvc/lib/libcomdlg32.a(dkfvbt.o)
 .idata$5       0x6d65521c        0x4 /opt/xmingw/lib/gcc-lib/i386-mingw32msvc/3.3.1/../../../../i386-mingw32msvc/lib/libgdi32.a(dihvbh.o)
 .idata$5       0x6d655220        0x4 /opt/xmingw/lib/gcc-lib/i386-mingw32msvc/3.3.1/../../../../i386-mingw32msvc/lib/libgdi32.a(dihvbs00038.o)
                0x6d655220                _imp__CreateDIBSection@24
 .idata$5       0x6d655224        0x4 /opt/xmingw/lib/gcc-lib/i386-mingw32msvc/3.3.1/../../../../i386-mingw32msvc/lib/libgdi32.a(dihvbs00072.o)
                0x6d655224                _imp__DeleteObject@4
 .idata$5       0x6d655228        0x4 /opt/xmingw/lib/gcc-lib/i386-mingw32msvc/3.3.1/../../../../i386-mingw32msvc/lib/libgdi32.a(dihvbs00195.o)
                0x6d655228                _imp__GetStockObject@4
 .idata$5       0x6d65522c        0x4 /opt/xmingw/lib/gcc-lib/i386-mingw32msvc/3.3.1/../../../../i386-mingw32msvc/lib/libgdi32.a(dihvbt.o)
 .idata$5       0x6d655230        0x4 /opt/xmingw/lib/gcc-lib/i386-mingw32msvc/3.3.1/../../../../i386-mingw32msvc/lib/libkernel32.a(dmivbh.o)
 .idata$5       0x6d655234        0x4 /opt/xmingw/lib/gcc-lib/i386-mingw32msvc/3.3.1/../../../../i386-mingw32msvc/lib/libkernel32.a(dmivbs00001.o)
                0x6d655234                _imp__AddAtomA@4
 .idata$5       0x6d655238        0x4 /opt/xmingw/lib/gcc-lib/i386-mingw32msvc/3.3.1/../../../../i386-mingw32msvc/lib/libkernel32.a(dmivbs00019.o)
                0x6d655238                _imp__BeginUpdateResourceA@8
 .idata$5       0x6d65523c        0x4 /opt/xmingw/lib/gcc-lib/i386-mingw32msvc/3.3.1/../../../../i386-mingw32msvc/lib/libkernel32.a(dmivbs00038.o)
                0x6d65523c                _imp__CloseHandle@4
 .idata$5       0x6d655240        0x4 /opt/xmingw/lib/gcc-lib/i386-mingw32msvc/3.3.1/../../../../i386-mingw32msvc/lib/libkernel32.a(dmivbs00053.o)
                0x6d655240                _imp__CopyFileA@12
 .idata$5       0x6d655244        0x4 /opt/xmingw/lib/gcc-lib/i386-mingw32msvc/3.3.1/../../../../i386-mingw32msvc/lib/libkernel32.a(dmivbs00068.o)
                0x6d655244                _imp__CreateFileA@28
 .idata$5       0x6d655248        0x4 /opt/xmingw/lib/gcc-lib/i386-mingw32msvc/3.3.1/../../../../i386-mingw32msvc/lib/libkernel32.a(dmivbs00108.o)
                0x6d655248                _imp__DeleteFileA@4
 .idata$5       0x6d65524c        0x4 /opt/xmingw/lib/gcc-lib/i386-mingw32msvc/3.3.1/../../../../i386-mingw32msvc/lib/libkernel32.a(dmivbs00123.o)
                0x6d65524c                _imp__EndUpdateResourceA@8
 .idata$5       0x6d655250        0x4 /opt/xmingw/lib/gcc-lib/i386-mingw32msvc/3.3.1/../../../../i386-mingw32msvc/lib/libkernel32.a(dmivbs00175.o)
                0x6d655250                _imp__FindAtomA@4
 .idata$5       0x6d655254        0x4 /opt/xmingw/lib/gcc-lib/i386-mingw32msvc/3.3.1/../../../../i386-mingw32msvc/lib/libkernel32.a(dmivbs00196.o)
                0x6d655254                _imp__FindResourceA@12
 .idata$5       0x6d655258        0x4 /opt/xmingw/lib/gcc-lib/i386-mingw32msvc/3.3.1/../../../../i386-mingw32msvc/lib/libkernel32.a(dmivbs00208.o)
                0x6d655258                _imp__FormatMessageA@28
 .idata$5       0x6d65525c        0x4 /opt/xmingw/lib/gcc-lib/i386-mingw32msvc/3.3.1/../../../../i386-mingw32msvc/lib/libkernel32.a(dmivbs00213.o)
                0x6d65525c                _imp__FreeLibrary@4
 .idata$5       0x6d655260        0x4 /opt/xmingw/lib/gcc-lib/i386-mingw32msvc/3.3.1/../../../../i386-mingw32msvc/lib/libkernel32.a(dmivbs00220.o)
                0x6d655260                _imp__GetAtomNameA@12
 .idata$5       0x6d655264        0x4 /opt/xmingw/lib/gcc-lib/i386-mingw32msvc/3.3.1/../../../../i386-mingw32msvc/lib/libkernel32.a(dmivbs00311.o)
                0x6d655264                _imp__GetFileSize@8
 .idata$5       0x6d655268        0x4 /opt/xmingw/lib/gcc-lib/i386-mingw32msvc/3.3.1/../../../../i386-mingw32msvc/lib/libkernel32.a(dmivbs00323.o)
                0x6d655268                _imp__GetLastError@0
 .idata$5       0x6d65526c        0x4 /opt/xmingw/lib/gcc-lib/i386-mingw32msvc/3.3.1/../../../../i386-mingw32msvc/lib/libkernel32.a(dmivbs00333.o)
                0x6d65526c                _imp__GetModuleFileNameA@12
 .idata$5       0x6d655270        0x4 /opt/xmingw/lib/gcc-lib/i386-mingw32msvc/3.3.1/../../../../i386-mingw32msvc/lib/libkernel32.a(dmivbs00421.o)
                0x6d655270                _imp__GetTickCount@0
 .idata$5       0x6d655274        0x4 /opt/xmingw/lib/gcc-lib/i386-mingw32msvc/3.3.1/../../../../i386-mingw32msvc/lib/libkernel32.a(dmivbs00431.o)
                0x6d655274                _imp__GetVersionExA@4
 .idata$5       0x6d655278        0x4 /opt/xmingw/lib/gcc-lib/i386-mingw32msvc/3.3.1/../../../../i386-mingw32msvc/lib/libkernel32.a(dmivbs00523.o)
                0x6d655278                _imp__LoadLibraryExA@12
 .idata$5       0x6d65527c        0x4 /opt/xmingw/lib/gcc-lib/i386-mingw32msvc/3.3.1/../../../../i386-mingw32msvc/lib/libkernel32.a(dmivbs00527.o)
                0x6d65527c                _imp__LoadResource@8
 .idata$5       0x6d655280        0x4 /opt/xmingw/lib/gcc-lib/i386-mingw32msvc/3.3.1/../../../../i386-mingw32msvc/lib/libkernel32.a(dmivbs00541.o)
                0x6d655280                _imp__LockResource@4
 .idata$5       0x6d655284        0x4 /opt/xmingw/lib/gcc-lib/i386-mingw32msvc/3.3.1/../../../../i386-mingw32msvc/lib/libkernel32.a(dmivbs00613.o)
                0x6d655284                _imp__ReadFile@20
 .idata$5       0x6d655288        0x4 /opt/xmingw/lib/gcc-lib/i386-mingw32msvc/3.3.1/../../../../i386-mingw32msvc/lib/libkernel32.a(dmivbs00690.o)
                0x6d655288                _imp__SetEndOfFile@4
 .idata$5       0x6d65528c        0x4 /opt/xmingw/lib/gcc-lib/i386-mingw32msvc/3.3.1/../../../../i386-mingw32msvc/lib/libkernel32.a(dmivbs00699.o)
                0x6d65528c                _imp__SetFilePointer@16
 .idata$5       0x6d655290        0x4 /opt/xmingw/lib/gcc-lib/i386-mingw32msvc/3.3.1/../../../../i386-mingw32msvc/lib/libkernel32.a(dmivbs00746.o)
                0x6d655290                _imp__SizeofResource@8
 .idata$5       0x6d655294        0x4 /opt/xmingw/lib/gcc-lib/i386-mingw32msvc/3.3.1/../../../../i386-mingw32msvc/lib/libkernel32.a(dmivbs00776.o)
                0x6d655294                _imp__UpdateResourceA@24
 .idata$5       0x6d655298        0x4 /opt/xmingw/lib/gcc-lib/i386-mingw32msvc/3.3.1/../../../../i386-mingw32msvc/lib/libkernel32.a(dmivbs00822.o)
                0x6d655298                _imp__WriteFile@20
 .idata$5       0x6d65529c        0x4 /opt/xmingw/lib/gcc-lib/i386-mingw32msvc/3.3.1/../../../../i386-mingw32msvc/lib/libkernel32.a(dmivbt.o)
 .idata$5       0x6d6552a0        0x4 /opt/xmingw/lib/gcc-lib/i386-mingw32msvc/3.3.1/../../../../i386-mingw32msvc/lib/libmsvcrt.a(dznch.o)
 .idata$5       0x6d6552a4        0x4 /opt/xmingw/lib/gcc-lib/i386-mingw32msvc/3.3.1/../../../../i386-mingw32msvc/lib/libmsvcrt.a(dzncs00036.o)
                0x6d6552a4                _imp____dllonexit
 .idata$5       0x6d6552a8        0x4 /opt/xmingw/lib/gcc-lib/i386-mingw32msvc/3.3.1/../../../../i386-mingw32msvc/lib/libmsvcrt.a(dzncs00047.o)
                0x6d6552a8                _imp____mb_cur_max
 .idata$5       0x6d6552ac        0x4 /opt/xmingw/lib/gcc-lib/i386-mingw32msvc/3.3.1/../../../../i386-mingw32msvc/lib/libmsvcrt.a(dzncs00147.o)
                0x6d6552ac                _imp___errno
 .idata$5       0x6d6552b0        0x4 /opt/xmingw/lib/gcc-lib/i386-mingw32msvc/3.3.1/../../../../i386-mingw32msvc/lib/libmsvcrt.a(dzncs00176.o)
                0x6d6552b0                _imp___flsbuf
 .idata$5       0x6d6552b4        0x4 /opt/xmingw/lib/gcc-lib/i386-mingw32msvc/3.3.1/../../../../i386-mingw32msvc/lib/libmsvcrt.a(dzncs00222.o)
                0x6d6552b4                _imp___iob
 .idata$5       0x6d6552b8        0x4 /opt/xmingw/lib/gcc-lib/i386-mingw32msvc/3.3.1/../../../../i386-mingw32msvc/lib/libmsvcrt.a(dzncs00224.o)
                0x6d6552b8                _imp___isctype
 .idata$5       0x6d6552bc        0x4 /opt/xmingw/lib/gcc-lib/i386-mingw32msvc/3.3.1/../../../../i386-mingw32msvc/lib/libmsvcrt.a(dzncs00344.o)
                0x6d6552bc                _imp___pctype
 .idata$5       0x6d6552c0        0x4 /opt/xmingw/lib/gcc-lib/i386-mingw32msvc/3.3.1/../../../../i386-mingw32msvc/lib/libmsvcrt.a(dzncs00395.o)
                0x6d6552c0                _imp___stricmp
 .idata$5       0x6d6552c4        0x4 /opt/xmingw/lib/gcc-lib/i386-mingw32msvc/3.3.1/../../../../i386-mingw32msvc/lib/libmsvcrt.a(dzncs00510.o)
                0x6d6552c4                _imp__abort
 .idata$5       0x6d6552c8        0x4 /opt/xmingw/lib/gcc-lib/i386-mingw32msvc/3.3.1/../../../../i386-mingw32msvc/lib/libmsvcrt.a(dzncs00516.o)
                0x6d6552c8                _imp__atan2
 .idata$5       0x6d6552cc        0x4 /opt/xmingw/lib/gcc-lib/i386-mingw32msvc/3.3.1/../../../../i386-mingw32msvc/lib/libmsvcrt.a(dzncs00519.o)
                0x6d6552cc                _imp__atoi
 .idata$5       0x6d6552d0        0x4 /opt/xmingw/lib/gcc-lib/i386-mingw32msvc/3.3.1/../../../../i386-mingw32msvc/lib/libmsvcrt.a(dzncs00526.o)
                0x6d6552d0                _imp__cos
 .idata$5       0x6d6552d4        0x4 /opt/xmingw/lib/gcc-lib/i386-mingw32msvc/3.3.1/../../../../i386-mingw32msvc/lib/libmsvcrt.a(dzncs00531.o)
                0x6d6552d4                _imp__exit
 .idata$5       0x6d6552d8        0x4 /opt/xmingw/lib/gcc-lib/i386-mingw32msvc/3.3.1/../../../../i386-mingw32msvc/lib/libmsvcrt.a(dzncs00537.o)
                0x6d6552d8                _imp__fflush
 .idata$5       0x6d6552dc        0x4 /opt/xmingw/lib/gcc-lib/i386-mingw32msvc/3.3.1/../../../../i386-mingw32msvc/lib/libmsvcrt.a(dzncs00543.o)
                0x6d6552dc                _imp__floor
 .idata$5       0x6d6552e0        0x4 /opt/xmingw/lib/gcc-lib/i386-mingw32msvc/3.3.1/../../../../i386-mingw32msvc/lib/libmsvcrt.a(dzncs00546.o)
                0x6d6552e0                _imp__fprintf
 .idata$5       0x6d6552e4        0x4 /opt/xmingw/lib/gcc-lib/i386-mingw32msvc/3.3.1/../../../../i386-mingw32msvc/lib/libmsvcrt.a(dzncs00552.o)
                0x6d6552e4                _imp__free
 .idata$5       0x6d6552e8        0x4 /opt/xmingw/lib/gcc-lib/i386-mingw32msvc/3.3.1/../../../../i386-mingw32msvc/lib/libmsvcrt.a(dzncs00554.o)
                0x6d6552e8                _imp__frexp
 .idata$5       0x6d6552ec        0x4 /opt/xmingw/lib/gcc-lib/i386-mingw32msvc/3.3.1/../../../../i386-mingw32msvc/lib/libmsvcrt.a(dzncs00596.o)
                0x6d6552ec                _imp__ldexp
 .idata$5       0x6d6552f0        0x4 /opt/xmingw/lib/gcc-lib/i386-mingw32msvc/3.3.1/../../../../i386-mingw32msvc/lib/libmsvcrt.a(dzncs00603.o)
                0x6d6552f0                _imp__malloc
 .idata$5       0x6d6552f4        0x4 /opt/xmingw/lib/gcc-lib/i386-mingw32msvc/3.3.1/../../../../i386-mingw32msvc/lib/libmsvcrt.a(dzncs00609.o)
                0x6d6552f4                _imp__memcpy
 .idata$5       0x6d6552f8        0x4 /opt/xmingw/lib/gcc-lib/i386-mingw32msvc/3.3.1/../../../../i386-mingw32msvc/lib/libmsvcrt.a(dzncs00610.o)
                0x6d6552f8                _imp__memmove
 .idata$5       0x6d6552fc        0x4 /opt/xmingw/lib/gcc-lib/i386-mingw32msvc/3.3.1/../../../../i386-mingw32msvc/lib/libmsvcrt.a(dzncs00611.o)
                0x6d6552fc                _imp__memset
 .idata$5       0x6d655300        0x4 /opt/xmingw/lib/gcc-lib/i386-mingw32msvc/3.3.1/../../../../i386-mingw32msvc/lib/libmsvcrt.a(dzncs00616.o)
                0x6d655300                _imp__printf
 .idata$5       0x6d655304        0x4 /opt/xmingw/lib/gcc-lib/i386-mingw32msvc/3.3.1/../../../../i386-mingw32msvc/lib/libmsvcrt.a(dzncs00619.o)
                0x6d655304                _imp__puts
 .idata$5       0x6d655308        0x4 /opt/xmingw/lib/gcc-lib/i386-mingw32msvc/3.3.1/../../../../i386-mingw32msvc/lib/libmsvcrt.a(dzncs00624.o)
                0x6d655308                _imp__rand
 .idata$5       0x6d65530c        0x4 /opt/xmingw/lib/gcc-lib/i386-mingw32msvc/3.3.1/../../../../i386-mingw32msvc/lib/libmsvcrt.a(dzncs00625.o)
                0x6d65530c                _imp__realloc
 .idata$5       0x6d655310        0x4 /opt/xmingw/lib/gcc-lib/i386-mingw32msvc/3.3.1/../../../../i386-mingw32msvc/lib/libmsvcrt.a(dzncs00634.o)
                0x6d655310                _imp__sin
 .idata$5       0x6d655314        0x4 /opt/xmingw/lib/gcc-lib/i386-mingw32msvc/3.3.1/../../../../i386-mingw32msvc/lib/libmsvcrt.a(dzncs00636.o)
                0x6d655314                _imp__sprintf
 .idata$5       0x6d655318        0x4 /opt/xmingw/lib/gcc-lib/i386-mingw32msvc/3.3.1/../../../../i386-mingw32msvc/lib/libmsvcrt.a(dzncs00638.o)
                0x6d655318                _imp__srand
 .idata$5       0x6d65531c        0x4 /opt/xmingw/lib/gcc-lib/i386-mingw32msvc/3.3.1/../../../../i386-mingw32msvc/lib/libmsvcrt.a(dzncs00640.o)
                0x6d65531c                _imp__strcat
 .idata$5       0x6d655320        0x4 /opt/xmingw/lib/gcc-lib/i386-mingw32msvc/3.3.1/../../../../i386-mingw32msvc/lib/libmsvcrt.a(dzncs00642.o)
                0x6d655320                _imp__strcmp
 .idata$5       0x6d655324        0x4 /opt/xmingw/lib/gcc-lib/i386-mingw32msvc/3.3.1/../../../../i386-mingw32msvc/lib/libmsvcrt.a(dzncs00644.o)
                0x6d655324                _imp__strcpy
 .idata$5       0x6d655328        0x4 /opt/xmingw/lib/gcc-lib/i386-mingw32msvc/3.3.1/../../../../i386-mingw32msvc/lib/libmsvcrt.a(dzncs00648.o)
                0x6d655328                _imp__strlen
 .idata$5       0x6d65532c        0x4 /opt/xmingw/lib/gcc-lib/i386-mingw32msvc/3.3.1/../../../../i386-mingw32msvc/lib/libmsvcrt.a(dzncs00670.o)
                0x6d65532c                _imp__toupper
 .idata$5       0x6d655330        0x4 /opt/xmingw/lib/gcc-lib/i386-mingw32msvc/3.3.1/../../../../i386-mingw32msvc/lib/libmsvcrt.a(dznct.o)
 .idata$5       0x6d655334        0x4 /opt/xmingw/lib/gcc-lib/i386-mingw32msvc/3.3.1/../../../../i386-mingw32msvc/lib/libuser32.a(dynvbh.o)
 .idata$5       0x6d655338        0x4 /opt/xmingw/lib/gcc-lib/i386-mingw32msvc/3.3.1/../../../../i386-mingw32msvc/lib/libuser32.a(dynvbs00053.o)
                0x6d655338                _imp__CheckDlgButton@12
 .idata$5       0x6d65533c        0x4 /opt/xmingw/lib/gcc-lib/i386-mingw32msvc/3.3.1/../../../../i386-mingw32msvc/lib/libuser32.a(dynvbs00146.o)
                0x6d65533c                _imp__DialogBoxParamA@20
 .idata$5       0x6d655340        0x4 /opt/xmingw/lib/gcc-lib/i386-mingw32msvc/3.3.1/../../../../i386-mingw32msvc/lib/libuser32.a(dynvbs00179.o)
                0x6d655340                _imp__EnableWindow@8
 .idata$5       0x6d655344        0x4 /opt/xmingw/lib/gcc-lib/i386-mingw32msvc/3.3.1/../../../../i386-mingw32msvc/lib/libuser32.a(dynvbs00181.o)
                0x6d655344                _imp__EndDialog@8
 .idata$5       0x6d655348        0x4 /opt/xmingw/lib/gcc-lib/i386-mingw32msvc/3.3.1/../../../../i386-mingw32msvc/lib/libuser32.a(dynvbs00235.o)
                0x6d655348                _imp__GetClientRect@8
 .idata$5       0x6d65534c        0x4 /opt/xmingw/lib/gcc-lib/i386-mingw32msvc/3.3.1/../../../../i386-mingw32msvc/lib/libuser32.a(dynvbs00246.o)
                0x6d65534c                _imp__GetCursorPos@4
 .idata$5       0x6d655350        0x4 /opt/xmingw/lib/gcc-lib/i386-mingw32msvc/3.3.1/../../../../i386-mingw32msvc/lib/libuser32.a(dynvbs00247.o)
                0x6d655350                _imp__GetDC@4
 .idata$5       0x6d655354        0x4 /opt/xmingw/lib/gcc-lib/i386-mingw32msvc/3.3.1/../../../../i386-mingw32msvc/lib/libuser32.a(dynvbs00249.o)
                0x6d655354                _imp__GetDesktopWindow@0
 .idata$5       0x6d655358        0x4 /opt/xmingw/lib/gcc-lib/i386-mingw32msvc/3.3.1/../../../../i386-mingw32msvc/lib/libuser32.a(dynvbs00251.o)
                0x6d655358                _imp__GetDlgCtrlID@4
 .idata$5       0x6d65535c        0x4 /opt/xmingw/lib/gcc-lib/i386-mingw32msvc/3.3.1/../../../../i386-mingw32msvc/lib/libuser32.a(dynvbs00252.o)
                0x6d65535c                _imp__GetDlgItem@8
 .idata$5       0x6d655360        0x4 /opt/xmingw/lib/gcc-lib/i386-mingw32msvc/3.3.1/../../../../i386-mingw32msvc/lib/libuser32.a(dynvbs00253.o)
                0x6d655360                _imp__GetDlgItemInt@16
 .idata$5       0x6d655364        0x4 /opt/xmingw/lib/gcc-lib/i386-mingw32msvc/3.3.1/../../../../i386-mingw32msvc/lib/libuser32.a(dynvbs00254.o)
                0x6d655364                _imp__GetDlgItemTextA@16
 .idata$5       0x6d655368        0x4 /opt/xmingw/lib/gcc-lib/i386-mingw32msvc/3.3.1/../../../../i386-mingw32msvc/lib/libuser32.a(dynvbs00346.o)
                0x6d655368                _imp__GetWindowRect@8
 .idata$5       0x6d65536c        0x4 /opt/xmingw/lib/gcc-lib/i386-mingw32msvc/3.3.1/../../../../i386-mingw32msvc/lib/libuser32.a(dynvbs00383.o)
                0x6d65536c                _imp__IsDlgButtonChecked@8
 .idata$5       0x6d655370        0x4 /opt/xmingw/lib/gcc-lib/i386-mingw32msvc/3.3.1/../../../../i386-mingw32msvc/lib/libuser32.a(dynvbs00429.o)
                0x6d655370                _imp__MessageBeep@4
 .idata$5       0x6d655374        0x4 /opt/xmingw/lib/gcc-lib/i386-mingw32msvc/3.3.1/../../../../i386-mingw32msvc/lib/libuser32.a(dynvbs00430.o)
                0x6d655374                _imp__MessageBoxA@16
 .idata$5       0x6d655378        0x4 /opt/xmingw/lib/gcc-lib/i386-mingw32msvc/3.3.1/../../../../i386-mingw32msvc/lib/libuser32.a(dynvbs00438.o)
                0x6d655378                _imp__MoveWindow@24
 .idata$5       0x6d65537c        0x4 /opt/xmingw/lib/gcc-lib/i386-mingw32msvc/3.3.1/../../../../i386-mingw32msvc/lib/libuser32.a(dynvbs00482.o)
                0x6d65537c                _imp__ReleaseCapture@0
 .idata$5       0x6d655380        0x4 /opt/xmingw/lib/gcc-lib/i386-mingw32msvc/3.3.1/../../../../i386-mingw32msvc/lib/libuser32.a(dynvbs00483.o)
                0x6d655380                _imp__ReleaseDC@8
 .idata$5       0x6d655384        0x4 /opt/xmingw/lib/gcc-lib/i386-mingw32msvc/3.3.1/../../../../i386-mingw32msvc/lib/libuser32.a(dynvbs00494.o)
                0x6d655384                _imp__SendDlgItemMessageA@20
 .idata$5       0x6d655388        0x4 /opt/xmingw/lib/gcc-lib/i386-mingw32msvc/3.3.1/../../../../i386-mingw32msvc/lib/libuser32.a(dynvbs00506.o)
                0x6d655388                _imp__SetCapture@4
 .idata$5       0x6d65538c        0x4 /opt/xmingw/lib/gcc-lib/i386-mingw32msvc/3.3.1/../../../../i386-mingw32msvc/lib/libuser32.a(dynvbs00518.o)
                0x6d65538c                _imp__SetDlgItemInt@16
 .idata$5       0x6d655390        0x4 /opt/xmingw/lib/gcc-lib/i386-mingw32msvc/3.3.1/../../../../i386-mingw32msvc/lib/libuser32.a(dynvbs00519.o)
                0x6d655390                _imp__SetDlgItemTextA@12
 .idata$5       0x6d655394        0x4 /opt/xmingw/lib/gcc-lib/i386-mingw32msvc/3.3.1/../../../../i386-mingw32msvc/lib/libuser32.a(dynvbs00522.o)
                0x6d655394                _imp__SetFocus@4
 .idata$5       0x6d655398        0x4 /opt/xmingw/lib/gcc-lib/i386-mingw32msvc/3.3.1/../../../../i386-mingw32msvc/lib/libuser32.a(dynvbs00574.o)
                0x6d655398                _imp__ShowWindow@8
 .idata$5       0x6d65539c        0x4 /opt/xmingw/lib/gcc-lib/i386-mingw32msvc/3.3.1/../../../../i386-mingw32msvc/lib/libuser32.a(dynvbt.o)
 SORT(*)(.idata$6)
 .idata$6       0x6d6553a0       0x14 /opt/xmingw/lib/gcc-lib/i386-mingw32msvc/3.3.1/../../../../i386-mingw32msvc/lib/libcomdlg32.a(dkfvbs00009.o)
 .idata$6       0x6d6553b4       0x14 /opt/xmingw/lib/gcc-lib/i386-mingw32msvc/3.3.1/../../../../i386-mingw32msvc/lib/libcomdlg32.a(dkfvbs00011.o)
 .idata$6       0x6d6553c8       0x14 /opt/xmingw/lib/gcc-lib/i386-mingw32msvc/3.3.1/../../../../i386-mingw32msvc/lib/libgdi32.a(dihvbs00038.o)
 .idata$6       0x6d6553dc       0x10 /opt/xmingw/lib/gcc-lib/i386-mingw32msvc/3.3.1/../../../../i386-mingw32msvc/lib/libgdi32.a(dihvbs00072.o)
 .idata$6       0x6d6553ec       0x12 /opt/xmingw/lib/gcc-lib/i386-mingw32msvc/3.3.1/../../../../i386-mingw32msvc/lib/libgdi32.a(dihvbs00195.o)
 *fill*         0x6d6553fe        0x2 00
 .idata$6       0x6d655400        0xc /opt/xmingw/lib/gcc-lib/i386-mingw32msvc/3.3.1/../../../../i386-mingw32msvc/lib/libkernel32.a(dmivbs00001.o)
 .idata$6       0x6d65540c       0x18 /opt/xmingw/lib/gcc-lib/i386-mingw32msvc/3.3.1/../../../../i386-mingw32msvc/lib/libkernel32.a(dmivbs00019.o)
 .idata$6       0x6d655424        0xe /opt/xmingw/lib/gcc-lib/i386-mingw32msvc/3.3.1/../../../../i386-mingw32msvc/lib/libkernel32.a(dmivbs00038.o)
 *fill*         0x6d655432        0x2 00
 .idata$6       0x6d655434        0xc /opt/xmingw/lib/gcc-lib/i386-mingw32msvc/3.3.1/../../../../i386-mingw32msvc/lib/libkernel32.a(dmivbs00053.o)
 .idata$6       0x6d655440        0xe /opt/xmingw/lib/gcc-lib/i386-mingw32msvc/3.3.1/../../../../i386-mingw32msvc/lib/libkernel32.a(dmivbs00068.o)
 *fill*         0x6d65544e        0x2 00
 .idata$6       0x6d655450        0xe /opt/xmingw/lib/gcc-lib/i386-mingw32msvc/3.3.1/../../../../i386-mingw32msvc/lib/libkernel32.a(dmivbs00108.o)
 *fill*         0x6d65545e        0x2 00
 .idata$6       0x6d655460       0x16 /opt/xmingw/lib/gcc-lib/i386-mingw32msvc/3.3.1/../../../../i386-mingw32msvc/lib/libkernel32.a(dmivbs00123.o)
 *fill*         0x6d655476        0x2 00
 .idata$6       0x6d655478        0xc /opt/xmingw/lib/gcc-lib/i386-mingw32msvc/3.3.1/../../../../i386-mingw32msvc/lib/libkernel32.a(dmivbs00175.o)
 .idata$6       0x6d655484       0x10 /opt/xmingw/lib/gcc-lib/i386-mingw32msvc/3.3.1/../../../../i386-mingw32msvc/lib/libkernel32.a(dmivbs00196.o)
 .idata$6       0x6d655494       0x12 /opt/xmingw/lib/gcc-lib/i386-mingw32msvc/3.3.1/../../../../i386-mingw32msvc/lib/libkernel32.a(dmivbs00208.o)
 *fill*         0x6d6554a6        0x2 00
 .idata$6       0x6d6554a8        0xe /opt/xmingw/lib/gcc-lib/i386-mingw32msvc/3.3.1/../../../../i386-mingw32msvc/lib/libkernel32.a(dmivbs00213.o)
 *fill*         0x6d6554b6        0x2 00
 .idata$6       0x6d6554b8       0x10 /opt/xmingw/lib/gcc-lib/i386-mingw32msvc/3.3.1/../../../../i386-mingw32msvc/lib/libkernel32.a(dmivbs00220.o)
 .idata$6       0x6d6554c8        0xe /opt/xmingw/lib/gcc-lib/i386-mingw32msvc/3.3.1/../../../../i386-mingw32msvc/lib/libkernel32.a(dmivbs00311.o)
 *fill*         0x6d6554d6        0x2 00
 .idata$6       0x6d6554d8       0x10 /opt/xmingw/lib/gcc-lib/i386-mingw32msvc/3.3.1/../../../../i386-mingw32msvc/lib/libkernel32.a(dmivbs00323.o)
 .idata$6       0x6d6554e8       0x16 /opt/xmingw/lib/gcc-lib/i386-mingw32msvc/3.3.1/../../../../i386-mingw32msvc/lib/libkernel32.a(dmivbs00333.o)
 *fill*         0x6d6554fe        0x2 00
 .idata$6       0x6d655500       0x10 /opt/xmingw/lib/gcc-lib/i386-mingw32msvc/3.3.1/../../../../i386-mingw32msvc/lib/libkernel32.a(dmivbs00421.o)
 .idata$6       0x6d655510       0x10 /opt/xmingw/lib/gcc-lib/i386-mingw32msvc/3.3.1/../../../../i386-mingw32msvc/lib/libkernel32.a(dmivbs00431.o)
 .idata$6       0x6d655520       0x12 /opt/xmingw/lib/gcc-lib/i386-mingw32msvc/3.3.1/../../../../i386-mingw32msvc/lib/libkernel32.a(dmivbs00523.o)
 *fill*         0x6d655532        0x2 00
 .idata$6       0x6d655534       0x10 /opt/xmingw/lib/gcc-lib/i386-mingw32msvc/3.3.1/../../../../i386-mingw32msvc/lib/libkernel32.a(dmivbs00527.o)
 .idata$6       0x6d655544       0x10 /opt/xmingw/lib/gcc-lib/i386-mingw32msvc/3.3.1/../../../../i386-mingw32msvc/lib/libkernel32.a(dmivbs00541.o)
 .idata$6       0x6d655554        0xc /opt/xmingw/lib/gcc-lib/i386-mingw32msvc/3.3.1/../../../../i386-mingw32msvc/lib/libkernel32.a(dmivbs00613.o)
 .idata$6       0x6d655560       0x10 /opt/xmingw/lib/gcc-lib/i386-mingw32msvc/3.3.1/../../../../i386-mingw32msvc/lib/libkernel32.a(dmivbs00690.o)
 .idata$6       0x6d655570       0x12 /opt/xmingw/lib/gcc-lib/i386-mingw32msvc/3.3.1/../../../../i386-mingw32msvc/lib/libkernel32.a(dmivbs00699.o)
 *fill*         0x6d655582        0x2 00
 .idata$6       0x6d655584       0x12 /opt/xmingw/lib/gcc-lib/i386-mingw32msvc/3.3.1/../../../../i386-mingw32msvc/lib/libkernel32.a(dmivbs00746.o)
 *fill*         0x6d655596        0x2 00
 .idata$6       0x6d655598       0x12 /opt/xmingw/lib/gcc-lib/i386-mingw32msvc/3.3.1/../../../../i386-mingw32msvc/lib/libkernel32.a(dmivbs00776.o)
 *fill*         0x6d6555aa        0x2 00
 .idata$6       0x6d6555ac        0xc /opt/xmingw/lib/gcc-lib/i386-mingw32msvc/3.3.1/../../../../i386-mingw32msvc/lib/libkernel32.a(dmivbs00822.o)
 .idata$6       0x6d6555b8        0xe /opt/xmingw/lib/gcc-lib/i386-mingw32msvc/3.3.1/../../../../i386-mingw32msvc/lib/libmsvcrt.a(dzncs00036.o)
 *fill*         0x6d6555c6        0x2 00
 .idata$6       0x6d6555c8       0x10 /opt/xmingw/lib/gcc-lib/i386-mingw32msvc/3.3.1/../../../../i386-mingw32msvc/lib/libmsvcrt.a(dzncs00047.o)
 .idata$6       0x6d6555d8        0xa /opt/xmingw/lib/gcc-lib/i386-mingw32msvc/3.3.1/../../../../i386-mingw32msvc/lib/libmsvcrt.a(dzncs00147.o)
 *fill*         0x6d6555e2        0x2 00
 .idata$6       0x6d6555e4        0xa /opt/xmingw/lib/gcc-lib/i386-mingw32msvc/3.3.1/../../../../i386-mingw32msvc/lib/libmsvcrt.a(dzncs00176.o)
 *fill*         0x6d6555ee        0x2 00
 .idata$6       0x6d6555f0        0x8 /opt/xmingw/lib/gcc-lib/i386-mingw32msvc/3.3.1/../../../../i386-mingw32msvc/lib/libmsvcrt.a(dzncs00222.o)
 .idata$6       0x6d6555f8        0xc /opt/xmingw/lib/gcc-lib/i386-mingw32msvc/3.3.1/../../../../i386-mingw32msvc/lib/libmsvcrt.a(dzncs00224.o)
 .idata$6       0x6d655604        0xa /opt/xmingw/lib/gcc-lib/i386-mingw32msvc/3.3.1/../../../../i386-mingw32msvc/lib/libmsvcrt.a(dzncs00344.o)
 *fill*         0x6d65560e        0x2 00
 .idata$6       0x6d655610        0xc /opt/xmingw/lib/gcc-lib/i386-mingw32msvc/3.3.1/../../../../i386-mingw32msvc/lib/libmsvcrt.a(dzncs00395.o)
 .idata$6       0x6d65561c        0x8 /opt/xmingw/lib/gcc-lib/i386-mingw32msvc/3.3.1/../../../../i386-mingw32msvc/lib/libmsvcrt.a(dzncs00510.o)
 .idata$6       0x6d655624        0x8 /opt/xmingw/lib/gcc-lib/i386-mingw32msvc/3.3.1/../../../../i386-mingw32msvc/lib/libmsvcrt.a(dzncs00516.o)
 .idata$6       0x6d65562c        0x8 /opt/xmingw/lib/gcc-lib/i386-mingw32msvc/3.3.1/../../../../i386-mingw32msvc/lib/libmsvcrt.a(dzncs00519.o)
 .idata$6       0x6d655634        0x6 /opt/xmingw/lib/gcc-lib/i386-mingw32msvc/3.3.1/../../../../i386-mingw32msvc/lib/libmsvcrt.a(dzncs00526.o)
 *fill*         0x6d65563a        0x2 00
 .idata$6       0x6d65563c        0x8 /opt/xmingw/lib/gcc-lib/i386-mingw32msvc/3.3.1/../../../../i386-mingw32msvc/lib/libmsvcrt.a(dzncs00531.o)
 .idata$6       0x6d655644        0xa /opt/xmingw/lib/gcc-lib/i386-mingw32msvc/3.3.1/../../../../i386-mingw32msvc/lib/libmsvcrt.a(dzncs00537.o)
 *fill*         0x6d65564e        0x2 00
 .idata$6       0x6d655650        0x8 /opt/xmingw/lib/gcc-lib/i386-mingw32msvc/3.3.1/../../../../i386-mingw32msvc/lib/libmsvcrt.a(dzncs00543.o)
 .idata$6       0x6d655658        0xa /opt/xmingw/lib/gcc-lib/i386-mingw32msvc/3.3.1/../../../../i386-mingw32msvc/lib/libmsvcrt.a(dzncs00546.o)
 *fill*         0x6d655662        0x2 00
 .idata$6       0x6d655664        0x8 /opt/xmingw/lib/gcc-lib/i386-mingw32msvc/3.3.1/../../../../i386-mingw32msvc/lib/libmsvcrt.a(dzncs00552.o)
 .idata$6       0x6d65566c        0x8 /opt/xmingw/lib/gcc-lib/i386-mingw32msvc/3.3.1/../../../../i386-mingw32msvc/lib/libmsvcrt.a(dzncs00554.o)
 .idata$6       0x6d655674        0x8 /opt/xmingw/lib/gcc-lib/i386-mingw32msvc/3.3.1/../../../../i386-mingw32msvc/lib/libmsvcrt.a(dzncs00596.o)
 .idata$6       0x6d65567c        0xa /opt/xmingw/lib/gcc-lib/i386-mingw32msvc/3.3.1/../../../../i386-mingw32msvc/lib/libmsvcrt.a(dzncs00603.o)
 *fill*         0x6d655686        0x2 00
 .idata$6       0x6d655688        0xa /opt/xmingw/lib/gcc-lib/i386-mingw32msvc/3.3.1/../../../../i386-mingw32msvc/lib/libmsvcrt.a(dzncs00609.o)
 *fill*         0x6d655692        0x2 00
 .idata$6       0x6d655694        0xa /opt/xmingw/lib/gcc-lib/i386-mingw32msvc/3.3.1/../../../../i386-mingw32msvc/lib/libmsvcrt.a(dzncs00610.o)
 *fill*         0x6d65569e        0x2 00
 .idata$6       0x6d6556a0        0xa /opt/xmingw/lib/gcc-lib/i386-mingw32msvc/3.3.1/../../../../i386-mingw32msvc/lib/libmsvcrt.a(dzncs00611.o)
 *fill*         0x6d6556aa        0x2 00
 .idata$6       0x6d6556ac        0xa /opt/xmingw/lib/gcc-lib/i386-mingw32msvc/3.3.1/../../../../i386-mingw32msvc/lib/libmsvcrt.a(dzncs00616.o)
 *fill*         0x6d6556b6        0x2 00
 .idata$6       0x6d6556b8        0x8 /opt/xmingw/lib/gcc-lib/i386-mingw32msvc/3.3.1/../../../../i386-mingw32msvc/lib/libmsvcrt.a(dzncs00619.o)
 .idata$6       0x6d6556c0        0x8 /opt/xmingw/lib/gcc-lib/i386-mingw32msvc/3.3.1/../../../../i386-mingw32msvc/lib/libmsvcrt.a(dzncs00624.o)
 .idata$6       0x6d6556c8        0xa /opt/xmingw/lib/gcc-lib/i386-mingw32msvc/3.3.1/../../../../i386-mingw32msvc/lib/libmsvcrt.a(dzncs00625.o)
 *fill*         0x6d6556d2        0x2 00
 .idata$6       0x6d6556d4        0x6 /opt/xmingw/lib/gcc-lib/i386-mingw32msvc/3.3.1/../../../../i386-mingw32msvc/lib/libmsvcrt.a(dzncs00634.o)
 *fill*         0x6d6556da        0x2 00
 .idata$6       0x6d6556dc        0xa /opt/xmingw/lib/gcc-lib/i386-mingw32msvc/3.3.1/../../../../i386-mingw32msvc/lib/libmsvcrt.a(dzncs00636.o)
 *fill*         0x6d6556e6        0x2 00
 .idata$6       0x6d6556e8        0x8 /opt/xmingw/lib/gcc-lib/i386-mingw32msvc/3.3.1/../../../../i386-mingw32msvc/lib/libmsvcrt.a(dzncs00638.o)
 .idata$6       0x6d6556f0        0xa /opt/xmingw/lib/gcc-lib/i386-mingw32msvc/3.3.1/../../../../i386-mingw32msvc/lib/libmsvcrt.a(dzncs00640.o)
 *fill*         0x6d6556fa        0x2 00
 .idata$6       0x6d6556fc        0xa /opt/xmingw/lib/gcc-lib/i386-mingw32msvc/3.3.1/../../../../i386-mingw32msvc/lib/libmsvcrt.a(dzncs00642.o)
 *fill*         0x6d655706        0x2 00
 .idata$6       0x6d655708        0xa /opt/xmingw/lib/gcc-lib/i386-mingw32msvc/3.3.1/../../../../i386-mingw32msvc/lib/libmsvcrt.a(dzncs00644.o)
 *fill*         0x6d655712        0x2 00
 .idata$6       0x6d655714        0xa /opt/xmingw/lib/gcc-lib/i386-mingw32msvc/3.3.1/../../../../i386-mingw32msvc/lib/libmsvcrt.a(dzncs00648.o)
 *fill*         0x6d65571e        0x2 00
 .idata$6       0x6d655720        0xa /opt/xmingw/lib/gcc-lib/i386-mingw32msvc/3.3.1/../../../../i386-mingw32msvc/lib/libmsvcrt.a(dzncs00670.o)
 *fill*         0x6d65572a        0x2 00
 .idata$6       0x6d65572c       0x12 /opt/xmingw/lib/gcc-lib/i386-mingw32msvc/3.3.1/../../../../i386-mingw32msvc/lib/libuser32.a(dynvbs00053.o)
 *fill*         0x6d65573e        0x2 00
 .idata$6       0x6d655740       0x12 /opt/xmingw/lib/gcc-lib/i386-mingw32msvc/3.3.1/../../../../i386-mingw32msvc/lib/libuser32.a(dynvbs00146.o)
 *fill*         0x6d655752        0x2 00
 .idata$6       0x6d655754       0x10 /opt/xmingw/lib/gcc-lib/i386-mingw32msvc/3.3.1/../../../../i386-mingw32msvc/lib/libuser32.a(dynvbs00179.o)
 .idata$6       0x6d655764        0xc /opt/xmingw/lib/gcc-lib/i386-mingw32msvc/3.3.1/../../../../i386-mingw32msvc/lib/libuser32.a(dynvbs00181.o)
 .idata$6       0x6d655770       0x10 /opt/xmingw/lib/gcc-lib/i386-mingw32msvc/3.3.1/../../../../i386-mingw32msvc/lib/libuser32.a(dynvbs00235.o)
 .idata$6       0x6d655780       0x10 /opt/xmingw/lib/gcc-lib/i386-mingw32msvc/3.3.1/../../../../i386-mingw32msvc/lib/libuser32.a(dynvbs00246.o)
 .idata$6       0x6d655790        0x8 /opt/xmingw/lib/gcc-lib/i386-mingw32msvc/3.3.1/../../../../i386-mingw32msvc/lib/libuser32.a(dynvbs00247.o)
 .idata$6       0x6d655798       0x14 /opt/xmingw/lib/gcc-lib/i386-mingw32msvc/3.3.1/../../../../i386-mingw32msvc/lib/libuser32.a(dynvbs00249.o)
 .idata$6       0x6d6557ac       0x10 /opt/xmingw/lib/gcc-lib/i386-mingw32msvc/3.3.1/../../../../i386-mingw32msvc/lib/libuser32.a(dynvbs00251.o)
 .idata$6       0x6d6557bc        0xe /opt/xmingw/lib/gcc-lib/i386-mingw32msvc/3.3.1/../../../../i386-mingw32msvc/lib/libuser32.a(dynvbs00252.o)
 *fill*         0x6d6557ca        0x2 00
 .idata$6       0x6d6557cc       0x10 /opt/xmingw/lib/gcc-lib/i386-mingw32msvc/3.3.1/../../../../i386-mingw32msvc/lib/libuser32.a(dynvbs00253.o)
 .idata$6       0x6d6557dc       0x12 /opt/xmingw/lib/gcc-lib/i386-mingw32msvc/3.3.1/../../../../i386-mingw32msvc/lib/libuser32.a(dynvbs00254.o)
 *fill*         0x6d6557ee        0x2 00
 .idata$6       0x6d6557f0       0x10 /opt/xmingw/lib/gcc-lib/i386-mingw32msvc/3.3.1/../../../../i386-mingw32msvc/lib/libuser32.a(dynvbs00346.o)
 .idata$6       0x6d655800       0x16 /opt/xmingw/lib/gcc-lib/i386-mingw32msvc/3.3.1/../../../../i386-mingw32msvc/lib/libuser32.a(dynvbs00383.o)
 *fill*         0x6d655816        0x2 00
 .idata$6       0x6d655818        0xe /opt/xmingw/lib/gcc-lib/i386-mingw32msvc/3.3.1/../../../../i386-mingw32msvc/lib/libuser32.a(dynvbs00429.o)
 *fill*         0x6d655826        0x2 00
 .idata$6       0x6d655828        0xe /opt/xmingw/lib/gcc-lib/i386-mingw32msvc/3.3.1/../../../../i386-mingw32msvc/lib/libuser32.a(dynvbs00430.o)
 *fill*         0x6d655836        0x2 00
 .idata$6       0x6d655838        0xe /opt/xmingw/lib/gcc-lib/i386-mingw32msvc/3.3.1/../../../../i386-mingw32msvc/lib/libuser32.a(dynvbs00438.o)
 *fill*         0x6d655846        0x2 00
 .idata$6       0x6d655848       0x12 /opt/xmingw/lib/gcc-lib/i386-mingw32msvc/3.3.1/../../../../i386-mingw32msvc/lib/libuser32.a(dynvbs00482.o)
 *fill*         0x6d65585a        0x2 00
 .idata$6       0x6d65585c        0xc /opt/xmingw/lib/gcc-lib/i386-mingw32msvc/3.3.1/../../../../i386-mingw32msvc/lib/libuser32.a(dynvbs00483.o)
 .idata$6       0x6d655868       0x16 /opt/xmingw/lib/gcc-lib/i386-mingw32msvc/3.3.1/../../../../i386-mingw32msvc/lib/libuser32.a(dynvbs00494.o)
 *fill*         0x6d65587e        0x2 00
 .idata$6       0x6d655880        0xe /opt/xmingw/lib/gcc-lib/i386-mingw32msvc/3.3.1/../../../../i386-mingw32msvc/lib/libuser32.a(dynvbs00506.o)
 *fill*         0x6d65588e        0x2 00
 .idata$6       0x6d655890       0x10 /opt/xmingw/lib/gcc-lib/i386-mingw32msvc/3.3.1/../../../../i386-mingw32msvc/lib/libuser32.a(dynvbs00518.o)
 .idata$6       0x6d6558a0       0x12 /opt/xmingw/lib/gcc-lib/i386-mingw32msvc/3.3.1/../../../../i386-mingw32msvc/lib/libuser32.a(dynvbs00519.o)
 *fill*         0x6d6558b2        0x2 00
 .idata$6       0x6d6558b4        0xc /opt/xmingw/lib/gcc-lib/i386-mingw32msvc/3.3.1/../../../../i386-mingw32msvc/lib/libuser32.a(dynvbs00522.o)
 .idata$6       0x6d6558c0        0xe /opt/xmingw/lib/gcc-lib/i386-mingw32msvc/3.3.1/../../../../i386-mingw32msvc/lib/libuser32.a(dynvbs00574.o)
 SORT(*)(.idata$7)
 *fill*         0x6d6558ce        0x2 00
 .idata$7       0x6d6558d0        0x4 /opt/xmingw/lib/gcc-lib/i386-mingw32msvc/3.3.1/../../../../i386-mingw32msvc/lib/libcomdlg32.a(dkfvbs00009.o)
 .idata$7       0x6d6558d4        0x4 /opt/xmingw/lib/gcc-lib/i386-mingw32msvc/3.3.1/../../../../i386-mingw32msvc/lib/libcomdlg32.a(dkfvbs00011.o)
 .idata$7       0x6d6558d8       0x10 /opt/xmingw/lib/gcc-lib/i386-mingw32msvc/3.3.1/../../../../i386-mingw32msvc/lib/libcomdlg32.a(dkfvbt.o)
                0x6d6558d8                _libcomdlg32_a_iname
 .idata$7       0x6d6558e8        0x4 /opt/xmingw/lib/gcc-lib/i386-mingw32msvc/3.3.1/../../../../i386-mingw32msvc/lib/libgdi32.a(dihvbs00038.o)
 .idata$7       0x6d6558ec        0x4 /opt/xmingw/lib/gcc-lib/i386-mingw32msvc/3.3.1/../../../../i386-mingw32msvc/lib/libgdi32.a(dihvbs00072.o)
 .idata$7       0x6d6558f0        0x4 /opt/xmingw/lib/gcc-lib/i386-mingw32msvc/3.3.1/../../../../i386-mingw32msvc/lib/libgdi32.a(dihvbs00195.o)
 .idata$7       0x6d6558f4        0xc /opt/xmingw/lib/gcc-lib/i386-mingw32msvc/3.3.1/../../../../i386-mingw32msvc/lib/libgdi32.a(dihvbt.o)
                0x6d6558f4                _libgdi32_a_iname
 .idata$7       0x6d655900        0x4 /opt/xmingw/lib/gcc-lib/i386-mingw32msvc/3.3.1/../../../../i386-mingw32msvc/lib/libkernel32.a(dmivbs00001.o)
 .idata$7       0x6d655904        0x4 /opt/xmingw/lib/gcc-lib/i386-mingw32msvc/3.3.1/../../../../i386-mingw32msvc/lib/libkernel32.a(dmivbs00019.o)
 .idata$7       0x6d655908        0x4 /opt/xmingw/lib/gcc-lib/i386-mingw32msvc/3.3.1/../../../../i386-mingw32msvc/lib/libkernel32.a(dmivbs00038.o)
 .idata$7       0x6d65590c        0x4 /opt/xmingw/lib/gcc-lib/i386-mingw32msvc/3.3.1/../../../../i386-mingw32msvc/lib/libkernel32.a(dmivbs00053.o)
 .idata$7       0x6d655910        0x4 /opt/xmingw/lib/gcc-lib/i386-mingw32msvc/3.3.1/../../../../i386-mingw32msvc/lib/libkernel32.a(dmivbs00068.o)
 .idata$7       0x6d655914        0x4 /opt/xmingw/lib/gcc-lib/i386-mingw32msvc/3.3.1/../../../../i386-mingw32msvc/lib/libkernel32.a(dmivbs00108.o)
 .idata$7       0x6d655918        0x4 /opt/xmingw/lib/gcc-lib/i386-mingw32msvc/3.3.1/../../../../i386-mingw32msvc/lib/libkernel32.a(dmivbs00123.o)
 .idata$7       0x6d65591c        0x4 /opt/xmingw/lib/gcc-lib/i386-mingw32msvc/3.3.1/../../../../i386-mingw32msvc/lib/libkernel32.a(dmivbs00175.o)
 .idata$7       0x6d655920        0x4 /opt/xmingw/lib/gcc-lib/i386-mingw32msvc/3.3.1/../../../../i386-mingw32msvc/lib/libkernel32.a(dmivbs00196.o)
 .idata$7       0x6d655924        0x4 /opt/xmingw/lib/gcc-lib/i386-mingw32msvc/3.3.1/../../../../i386-mingw32msvc/lib/libkernel32.a(dmivbs00208.o)
 .idata$7       0x6d655928        0x4 /opt/xmingw/lib/gcc-lib/i386-mingw32msvc/3.3.1/../../../../i386-mingw32msvc/lib/libkernel32.a(dmivbs00213.o)
 .idata$7       0x6d65592c        0x4 /opt/xmingw/lib/gcc-lib/i386-mingw32msvc/3.3.1/../../../../i386-mingw32msvc/lib/libkernel32.a(dmivbs00220.o)
 .idata$7       0x6d655930        0x4 /opt/xmingw/lib/gcc-lib/i386-mingw32msvc/3.3.1/../../../../i386-mingw32msvc/lib/libkernel32.a(dmivbs00311.o)
 .idata$7       0x6d655934        0x4 /opt/xmingw/lib/gcc-lib/i386-mingw32msvc/3.3.1/../../../../i386-mingw32msvc/lib/libkernel32.a(dmivbs00323.o)
 .idata$7       0x6d655938        0x4 /opt/xmingw/lib/gcc-lib/i386-mingw32msvc/3.3.1/../../../../i386-mingw32msvc/lib/libkernel32.a(dmivbs00333.o)
 .idata$7       0x6d65593c        0x4 /opt/xmingw/lib/gcc-lib/i386-mingw32msvc/3.3.1/../../../../i386-mingw32msvc/lib/libkernel32.a(dmivbs00421.o)
 .idata$7       0x6d655940        0x4 /opt/xmingw/lib/gcc-lib/i386-mingw32msvc/3.3.1/../../../../i386-mingw32msvc/lib/libkernel32.a(dmivbs00431.o)
 .idata$7       0x6d655944        0x4 /opt/xmingw/lib/gcc-lib/i386-mingw32msvc/3.3.1/../../../../i386-mingw32msvc/lib/libkernel32.a(dmivbs00523.o)
 .idata$7       0x6d655948        0x4 /opt/xmingw/lib/gcc-lib/i386-mingw32msvc/3.3.1/../../../../i386-mingw32msvc/lib/libkernel32.a(dmivbs00527.o)
 .idata$7       0x6d65594c        0x4 /opt/xmingw/lib/gcc-lib/i386-mingw32msvc/3.3.1/../../../../i386-mingw32msvc/lib/libkernel32.a(dmivbs00541.o)
 .idata$7       0x6d655950        0x4 /opt/xmingw/lib/gcc-lib/i386-mingw32msvc/3.3.1/../../../../i386-mingw32msvc/lib/libkernel32.a(dmivbs00613.o)
 .idata$7       0x6d655954        0x4 /opt/xmingw/lib/gcc-lib/i386-mingw32msvc/3.3.1/../../../../i386-mingw32msvc/lib/libkernel32.a(dmivbs00690.o)
 .idata$7       0x6d655958        0x4 /opt/xmingw/lib/gcc-lib/i386-mingw32msvc/3.3.1/../../../../i386-mingw32msvc/lib/libkernel32.a(dmivbs00699.o)
 .idata$7       0x6d65595c        0x4 /opt/xmingw/lib/gcc-lib/i386-mingw32msvc/3.3.1/../../../../i386-mingw32msvc/lib/libkernel32.a(dmivbs00746.o)
 .idata$7       0x6d655960        0x4 /opt/xmingw/lib/gcc-lib/i386-mingw32msvc/3.3.1/../../../../i386-mingw32msvc/lib/libkernel32.a(dmivbs00776.o)
 .idata$7       0x6d655964        0x4 /opt/xmingw/lib/gcc-lib/i386-mingw32msvc/3.3.1/../../../../i386-mingw32msvc/lib/libkernel32.a(dmivbs00822.o)
 .idata$7       0x6d655968       0x10 /opt/xmingw/lib/gcc-lib/i386-mingw32msvc/3.3.1/../../../../i386-mingw32msvc/lib/libkernel32.a(dmivbt.o)
                0x6d655968                _libkernel32_a_iname
 .idata$7       0x6d655978        0x4 /opt/xmingw/lib/gcc-lib/i386-mingw32msvc/3.3.1/../../../../i386-mingw32msvc/lib/libmsvcrt.a(dzncs00036.o)
 .idata$7       0x6d65597c        0x4 /opt/xmingw/lib/gcc-lib/i386-mingw32msvc/3.3.1/../../../../i386-mingw32msvc/lib/libmsvcrt.a(dzncs00047.o)
 .idata$7       0x6d655980        0x4 /opt/xmingw/lib/gcc-lib/i386-mingw32msvc/3.3.1/../../../../i386-mingw32msvc/lib/libmsvcrt.a(dzncs00147.o)
 .idata$7       0x6d655984        0x4 /opt/xmingw/lib/gcc-lib/i386-mingw32msvc/3.3.1/../../../../i386-mingw32msvc/lib/libmsvcrt.a(dzncs00176.o)
 .idata$7       0x6d655988        0x4 /opt/xmingw/lib/gcc-lib/i386-mingw32msvc/3.3.1/../../../../i386-mingw32msvc/lib/libmsvcrt.a(dzncs00222.o)
 .idata$7       0x6d65598c        0x4 /opt/xmingw/lib/gcc-lib/i386-mingw32msvc/3.3.1/../../../../i386-mingw32msvc/lib/libmsvcrt.a(dzncs00224.o)
 .idata$7       0x6d655990        0x4 /opt/xmingw/lib/gcc-lib/i386-mingw32msvc/3.3.1/../../../../i386-mingw32msvc/lib/libmsvcrt.a(dzncs00344.o)
 .idata$7       0x6d655994        0x4 /opt/xmingw/lib/gcc-lib/i386-mingw32msvc/3.3.1/../../../../i386-mingw32msvc/lib/libmsvcrt.a(dzncs00395.o)
 .idata$7       0x6d655998        0x4 /opt/xmingw/lib/gcc-lib/i386-mingw32msvc/3.3.1/../../../../i386-mingw32msvc/lib/libmsvcrt.a(dzncs00510.o)
 .idata$7       0x6d65599c        0x4 /opt/xmingw/lib/gcc-lib/i386-mingw32msvc/3.3.1/../../../../i386-mingw32msvc/lib/libmsvcrt.a(dzncs00516.o)
 .idata$7       0x6d6559a0        0x4 /opt/xmingw/lib/gcc-lib/i386-mingw32msvc/3.3.1/../../../../i386-mingw32msvc/lib/libmsvcrt.a(dzncs00519.o)
 .idata$7       0x6d6559a4        0x4 /opt/xmingw/lib/gcc-lib/i386-mingw32msvc/3.3.1/../../../../i386-mingw32msvc/lib/libmsvcrt.a(dzncs00526.o)
 .idata$7       0x6d6559a8        0x4 /opt/xmingw/lib/gcc-lib/i386-mingw32msvc/3.3.1/../../../../i386-mingw32msvc/lib/libmsvcrt.a(dzncs00531.o)
 .idata$7       0x6d6559ac        0x4 /opt/xmingw/lib/gcc-lib/i386-mingw32msvc/3.3.1/../../../../i386-mingw32msvc/lib/libmsvcrt.a(dzncs00537.o)
 .idata$7       0x6d6559b0        0x4 /opt/xmingw/lib/gcc-lib/i386-mingw32msvc/3.3.1/../../../../i386-mingw32msvc/lib/libmsvcrt.a(dzncs00543.o)
 .idata$7       0x6d6559b4        0x4 /opt/xmingw/lib/gcc-lib/i386-mingw32msvc/3.3.1/../../../../i386-mingw32msvc/lib/libmsvcrt.a(dzncs00546.o)
 .idata$7       0x6d6559b8        0x4 /opt/xmingw/lib/gcc-lib/i386-mingw32msvc/3.3.1/../../../../i386-mingw32msvc/lib/libmsvcrt.a(dzncs00552.o)
 .idata$7       0x6d6559bc        0x4 /opt/xmingw/lib/gcc-lib/i386-mingw32msvc/3.3.1/../../../../i386-mingw32msvc/lib/libmsvcrt.a(dzncs00554.o)
 .idata$7       0x6d6559c0        0x4 /opt/xmingw/lib/gcc-lib/i386-mingw32msvc/3.3.1/../../../../i386-mingw32msvc/lib/libmsvcrt.a(dzncs00596.o)
 .idata$7       0x6d6559c4        0x4 /opt/xmingw/lib/gcc-lib/i386-mingw32msvc/3.3.1/../../../../i386-mingw32msvc/lib/libmsvcrt.a(dzncs00603.o)
 .idata$7       0x6d6559c8        0x4 /opt/xmingw/lib/gcc-lib/i386-mingw32msvc/3.3.1/../../../../i386-mingw32msvc/lib/libmsvcrt.a(dzncs00609.o)
 .idata$7       0x6d6559cc        0x4 /opt/xmingw/lib/gcc-lib/i386-mingw32msvc/3.3.1/../../../../i386-mingw32msvc/lib/libmsvcrt.a(dzncs00610.o)
 .idata$7       0x6d6559d0        0x4 /opt/xmingw/lib/gcc-lib/i386-mingw32msvc/3.3.1/../../../../i386-mingw32msvc/lib/libmsvcrt.a(dzncs00611.o)
 .idata$7       0x6d6559d4        0x4 /opt/xmingw/lib/gcc-lib/i386-mingw32msvc/3.3.1/../../../../i386-mingw32msvc/lib/libmsvcrt.a(dzncs00616.o)
 .idata$7       0x6d6559d8        0x4 /opt/xmingw/lib/gcc-lib/i386-mingw32msvc/3.3.1/../../../../i386-mingw32msvc/lib/libmsvcrt.a(dzncs00619.o)
 .idata$7       0x6d6559dc        0x4 /opt/xmingw/lib/gcc-lib/i386-mingw32msvc/3.3.1/../../../../i386-mingw32msvc/lib/libmsvcrt.a(dzncs00624.o)
 .idata$7       0x6d6559e0        0x4 /opt/xmingw/lib/gcc-lib/i386-mingw32msvc/3.3.1/../../../../i386-mingw32msvc/lib/libmsvcrt.a(dzncs00625.o)
 .idata$7       0x6d6559e4        0x4 /opt/xmingw/lib/gcc-lib/i386-mingw32msvc/3.3.1/../../../../i386-mingw32msvc/lib/libmsvcrt.a(dzncs00634.o)
 .idata$7       0x6d6559e8        0x4 /opt/xmingw/lib/gcc-lib/i386-mingw32msvc/3.3.1/../../../../i386-mingw32msvc/lib/libmsvcrt.a(dzncs00636.o)
 .idata$7       0x6d6559ec        0x4 /opt/xmingw/lib/gcc-lib/i386-mingw32msvc/3.3.1/../../../../i386-mingw32msvc/lib/libmsvcrt.a(dzncs00638.o)
 .idata$7       0x6d6559f0        0x4 /opt/xmingw/lib/gcc-lib/i386-mingw32msvc/3.3.1/../../../../i386-mingw32msvc/lib/libmsvcrt.a(dzncs00640.o)
 .idata$7       0x6d6559f4        0x4 /opt/xmingw/lib/gcc-lib/i386-mingw32msvc/3.3.1/../../../../i386-mingw32msvc/lib/libmsvcrt.a(dzncs00642.o)
 .idata$7       0x6d6559f8        0x4 /opt/xmingw/lib/gcc-lib/i386-mingw32msvc/3.3.1/../../../../i386-mingw32msvc/lib/libmsvcrt.a(dzncs00644.o)
 .idata$7       0x6d6559fc        0x4 /opt/xmingw/lib/gcc-lib/i386-mingw32msvc/3.3.1/../../../../i386-mingw32msvc/lib/libmsvcrt.a(dzncs00648.o)
 .idata$7       0x6d655a00        0x4 /opt/xmingw/lib/gcc-lib/i386-mingw32msvc/3.3.1/../../../../i386-mingw32msvc/lib/libmsvcrt.a(dzncs00670.o)
 .idata$7       0x6d655a04        0xc /opt/xmingw/lib/gcc-lib/i386-mingw32msvc/3.3.1/../../../../i386-mingw32msvc/lib/libmsvcrt.a(dznct.o)
                0x6d655a04                _libmsvcrt_a_iname
 .idata$7       0x6d655a10        0x4 /opt/xmingw/lib/gcc-lib/i386-mingw32msvc/3.3.1/../../../../i386-mingw32msvc/lib/libuser32.a(dynvbs00053.o)
 .idata$7       0x6d655a14        0x4 /opt/xmingw/lib/gcc-lib/i386-mingw32msvc/3.3.1/../../../../i386-mingw32msvc/lib/libuser32.a(dynvbs00146.o)
 .idata$7       0x6d655a18        0x4 /opt/xmingw/lib/gcc-lib/i386-mingw32msvc/3.3.1/../../../../i386-mingw32msvc/lib/libuser32.a(dynvbs00179.o)
 .idata$7       0x6d655a1c        0x4 /opt/xmingw/lib/gcc-lib/i386-mingw32msvc/3.3.1/../../../../i386-mingw32msvc/lib/libuser32.a(dynvbs00181.o)
 .idata$7       0x6d655a20        0x4 /opt/xmingw/lib/gcc-lib/i386-mingw32msvc/3.3.1/../../../../i386-mingw32msvc/lib/libuser32.a(dynvbs00235.o)
 .idata$7       0x6d655a24        0x4 /opt/xmingw/lib/gcc-lib/i386-mingw32msvc/3.3.1/../../../../i386-mingw32msvc/lib/libuser32.a(dynvbs00246.o)
 .idata$7       0x6d655a28        0x4 /opt/xmingw/lib/gcc-lib/i386-mingw32msvc/3.3.1/../../../../i386-mingw32msvc/lib/libuser32.a(dynvbs00247.o)
 .idata$7       0x6d655a2c        0x4 /opt/xmingw/lib/gcc-lib/i386-mingw32msvc/3.3.1/../../../../i386-mingw32msvc/lib/libuser32.a(dynvbs00249.o)
 .idata$7       0x6d655a30        0x4 /opt/xmingw/lib/gcc-lib/i386-mingw32msvc/3.3.1/../../../../i386-mingw32msvc/lib/libuser32.a(dynvbs00251.o)
 .idata$7       0x6d655a34        0x4 /opt/xmingw/lib/gcc-lib/i386-mingw32msvc/3.3.1/../../../../i386-mingw32msvc/lib/libuser32.a(dynvbs00252.o)
 .idata$7       0x6d655a38        0x4 /opt/xmingw/lib/gcc-lib/i386-mingw32msvc/3.3.1/../../../../i386-mingw32msvc/lib/libuser32.a(dynvbs00253.o)
 .idata$7       0x6d655a3c        0x4 /opt/xmingw/lib/gcc-lib/i386-mingw32msvc/3.3.1/../../../../i386-mingw32msvc/lib/libuser32.a(dynvbs00254.o)
 .idata$7       0x6d655a40        0x4 /opt/xmingw/lib/gcc-lib/i386-mingw32msvc/3.3.1/../../../../i386-mingw32msvc/lib/libuser32.a(dynvbs00346.o)
 .idata$7       0x6d655a44        0x4 /opt/xmingw/lib/gcc-lib/i386-mingw32msvc/3.3.1/../../../../i386-mingw32msvc/lib/libuser32.a(dynvbs00383.o)
 .idata$7       0x6d655a48        0x4 /opt/xmingw/lib/gcc-lib/i386-mingw32msvc/3.3.1/../../../../i386-mingw32msvc/lib/libuser32.a(dynvbs00429.o)
 .idata$7       0x6d655a4c        0x4 /opt/xmingw/lib/gcc-lib/i386-mingw32msvc/3.3.1/../../../../i386-mingw32msvc/lib/libuser32.a(dynvbs00430.o)
 .idata$7       0x6d655a50        0x4 /opt/xmingw/lib/gcc-lib/i386-mingw32msvc/3.3.1/../../../../i386-mingw32msvc/lib/libuser32.a(dynvbs00438.o)
 .idata$7       0x6d655a54        0x4 /opt/xmingw/lib/gcc-lib/i386-mingw32msvc/3.3.1/../../../../i386-mingw32msvc/lib/libuser32.a(dynvbs00482.o)
 .idata$7       0x6d655a58        0x4 /opt/xmingw/lib/gcc-lib/i386-mingw32msvc/3.3.1/../../../../i386-mingw32msvc/lib/libuser32.a(dynvbs00483.o)
 .idata$7       0x6d655a5c        0x4 /opt/xmingw/lib/gcc-lib/i386-mingw32msvc/3.3.1/../../../../i386-mingw32msvc/lib/libuser32.a(dynvbs00494.o)
 .idata$7       0x6d655a60        0x4 /opt/xmingw/lib/gcc-lib/i386-mingw32msvc/3.3.1/../../../../i386-mingw32msvc/lib/libuser32.a(dynvbs00506.o)
 .idata$7       0x6d655a64        0x4 /opt/xmingw/lib/gcc-lib/i386-mingw32msvc/3.3.1/../../../../i386-mingw32msvc/lib/libuser32.a(dynvbs00518.o)
 .idata$7       0x6d655a68        0x4 /opt/xmingw/lib/gcc-lib/i386-mingw32msvc/3.3.1/../../../../i386-mingw32msvc/lib/libuser32.a(dynvbs00519.o)
 .idata$7       0x6d655a6c        0x4 /opt/xmingw/lib/gcc-lib/i386-mingw32msvc/3.3.1/../../../../i386-mingw32msvc/lib/libuser32.a(dynvbs00522.o)
 .idata$7       0x6d655a70        0x4 /opt/xmingw/lib/gcc-lib/i386-mingw32msvc/3.3.1/../../../../i386-mingw32msvc/lib/libuser32.a(dynvbs00574.o)
 .idata$7       0x6d655a74        0xc /opt/xmingw/lib/gcc-lib/i386-mingw32msvc/3.3.1/../../../../i386-mingw32msvc/lib/libuser32.a(dynvbt.o)
                0x6d655a74                _libuser32_a_iname

.CRT
 *(SORT(.CRT$*))

.endjunk        0x6d656000        0x0
                0x6d656000                PROVIDE (end, .)
                0x6d656000                PROVIDE (_end, .)
                0x6d656000                __end__ = .

.rsrc           0x6d656000     0x2800
 *(.rsrc)
 .rsrc          0x6d656000     0x270c res.o
 *(SORT(.rsrc$*))

.reloc          0x6d659000     0x1a00
 *(.reloc)
 .reloc         0x6d659000      0xc78 FilterFoundry.exp
 .reloc         0x6d659c78      0xc78 dll stuff

.stab
 *(.stab)

.stabstr
 *(.stabstr)
OUTPUT(dist/FilterFoundry.8bf pei-i386)
LOAD dll stuff
Archive member included because of file (symbol)

/opt/xmingw/lib/gcc-lib/i386-mingw32msvc/3.3.1/../../../../i386-mingw32msvc/lib/libmingw32.a(gccmain.o)
                              /opt/xmingw/lib/gcc-lib/i386-mingw32msvc/3.3.1/../../../../i386-mingw32msvc/lib/dllcrt2.o (__main)
/opt/xmingw/lib/gcc-lib/i386-mingw32msvc/3.3.1/../../../../i386-mingw32msvc/lib/libmingw32.a(pseudo-reloc.o)
                              /opt/xmingw/lib/gcc-lib/i386-mingw32msvc/3.3.1/../../../../i386-mingw32msvc/lib/dllcrt2.o (_pei386_runtime_relocator)
/opt/xmingw/lib/gcc-lib/i386-mingw32msvc/3.3.1/../../../../i386-mingw32msvc/lib/libmingw32.a(pseudo-reloc-list.o)
                              /opt/xmingw/lib/gcc-lib/i386-mingw32msvc/3.3.1/../../../../i386-mingw32msvc/lib/libmingw32.a(pseudo-reloc.o) (__RUNTIME_PSEUDO_RELOC_LIST_END__)
/opt/xmingw/lib/gcc-lib/i386-mingw32msvc/3.3.1/libgcc.a(w32-shared-ptr.o)
                              /opt/xmingw/lib/gcc-lib/i386-mingw32msvc/3.3.1/crtbegin.o (__w32_sharedptr_initialize)
/opt/xmingw/lib/gcc-lib/i386-mingw32msvc/3.3.1/libgcc.a(_chkstk.o)
                              parser.o (_alloca)
/opt/xmingw/lib/gcc-lib/i386-mingw32msvc/3.3.1/libgcc.a(_ctors.o)
                              /opt/xmingw/lib/gcc-lib/i386-mingw32msvc/3.3.1/../../../../i386-mingw32msvc/lib/libmingw32.a(gccmain.o) (__CTOR_LIST__)
/opt/xmingw/lib/gcc-lib/i386-mingw32msvc/3.3.1/../../../../i386-mingw32msvc/lib/libmingwex.a(pow.o)
                              node.o (pow)
/opt/xmingw/lib/gcc-lib/i386-mingw32msvc/3.3.1/../../../../i386-mingw32msvc/lib/libmingwex.a(fp_consts.o)
                              /opt/xmingw/lib/gcc-lib/i386-mingw32msvc/3.3.1/../../../../i386-mingw32msvc/lib/libmingwex.a(pow.o) (__QNAN)
/opt/xmingw/lib/gcc-lib/i386-mingw32msvc/3.3.1/../../../../i386-mingw32msvc/lib/libmingwex.a(powi.o)
                              /opt/xmingw/lib/gcc-lib/i386-mingw32msvc/3.3.1/../../../../i386-mingw32msvc/lib/libmingwex.a(pow.o) (__powi)
/opt/xmingw/lib/gcc-lib/i386-mingw32msvc/3.3.1/../../../../i386-mingw32msvc/lib/libmingwex.a(signbit.o)
                              /opt/xmingw/lib/gcc-lib/i386-mingw32msvc/3.3.1/../../../../i386-mingw32msvc/lib/libmingwex.a(pow.o) (__signbit)
/opt/xmingw/lib/gcc-lib/i386-mingw32msvc/3.3.1/../../../../i386-mingw32msvc/lib/libmingwex.a(fpclassify.o)
                              /opt/xmingw/lib/gcc-lib/i386-mingw32msvc/3.3.1/../../../../i386-mingw32msvc/lib/libmingwex.a(pow.o) (__fpclassify)
/opt/xmingw/lib/gcc-lib/i386-mingw32msvc/3.3.1/../../../../i386-mingw32msvc/lib/libmingwex.a(isnan.o)
                              /opt/xmingw/lib/gcc-lib/i386-mingw32msvc/3.3.1/../../../../i386-mingw32msvc/lib/libmingwex.a(pow.o) (__isnan)
/opt/xmingw/lib/gcc-lib/i386-mingw32msvc/3.3.1/../../../../i386-mingw32msvc/lib/libmsvcrt.a(dzncs00036.o)
                              /opt/xmingw/lib/gcc-lib/i386-mingw32msvc/3.3.1/../../../../i386-mingw32msvc/lib/dllcrt2.o (__dllonexit)
/opt/xmingw/lib/gcc-lib/i386-mingw32msvc/3.3.1/../../../../i386-mingw32msvc/lib/libmsvcrt.a(dzncs00537.o)
                              /opt/xmingw/lib/gcc-lib/i386-mingw32msvc/3.3.1/../../../../i386-mingw32msvc/lib/dllcrt2.o (fflush)
/opt/xmingw/lib/gcc-lib/i386-mingw32msvc/3.3.1/../../../../i386-mingw32msvc/lib/libmsvcrt.a(dzncs00552.o)
                              /opt/xmingw/lib/gcc-lib/i386-mingw32msvc/3.3.1/../../../../i386-mingw32msvc/lib/dllcrt2.o (free)
/opt/xmingw/lib/gcc-lib/i386-mingw32msvc/3.3.1/../../../../i386-mingw32msvc/lib/libmsvcrt.a(dzncs00147.o)
                              /opt/xmingw/lib/gcc-lib/i386-mingw32msvc/3.3.1/../../../../i386-mingw32msvc/lib/dllcrt2.o (_errno)
/opt/xmingw/lib/gcc-lib/i386-mingw32msvc/3.3.1/../../../../i386-mingw32msvc/lib/libmsvcrt.a(dzncs00603.o)
                              /opt/xmingw/lib/gcc-lib/i386-mingw32msvc/3.3.1/../../../../i386-mingw32msvc/lib/dllcrt2.o (malloc)
/opt/xmingw/lib/gcc-lib/i386-mingw32msvc/3.3.1/../../../../i386-mingw32msvc/lib/libmsvcrt.a(dzncs00640.o)
                              ui_win.o (strcat)
/opt/xmingw/lib/gcc-lib/i386-mingw32msvc/3.3.1/../../../../i386-mingw32msvc/lib/libmsvcrt.a(dzncs00636.o)
                              ui_win.o (sprintf)
/opt/xmingw/lib/gcc-lib/i386-mingw32msvc/3.3.1/../../../../i386-mingw32msvc/lib/libmsvcrt.a(dzncs00648.o)
                              ui.o (strlen)
/opt/xmingw/lib/gcc-lib/i386-mingw32msvc/3.3.1/../../../../i386-mingw32msvc/lib/libmsvcrt.a(dzncs00644.o)
                              ui_build.o (strcpy)
/opt/xmingw/lib/gcc-lib/i386-mingw32msvc/3.3.1/../../../../i386-mingw32msvc/lib/libmsvcrt.a(dzncs00611.o)
                              preview.o (memset)
/opt/xmingw/lib/gcc-lib/i386-mingw32msvc/3.3.1/../../../../i386-mingw32msvc/lib/libmsvcrt.a(dzncs00638.o)
                              preview.o (srand)
/opt/xmingw/lib/gcc-lib/i386-mingw32msvc/3.3.1/../../../../i386-mingw32msvc/lib/libmsvcrt.a(dzncs00609.o)
                              read.o (memcpy)
/opt/xmingw/lib/gcc-lib/i386-mingw32msvc/3.3.1/../../../../i386-mingw32msvc/lib/libmsvcrt.a(dzncs00519.o)
                              read.o (atoi)
/opt/xmingw/lib/gcc-lib/i386-mingw32msvc/3.3.1/../../../../i386-mingw32msvc/lib/libmsvcrt.a(dzncs00222.o)
                              lexer.o (_imp___iob)
/opt/xmingw/lib/gcc-lib/i386-mingw32msvc/3.3.1/../../../../i386-mingw32msvc/lib/libmsvcrt.a(dzncs00625.o)
                              lexer.o (realloc)
/opt/xmingw/lib/gcc-lib/i386-mingw32msvc/3.3.1/../../../../i386-mingw32msvc/lib/libmsvcrt.a(dzncs00531.o)
                              lexer.o (exit)
/opt/xmingw/lib/gcc-lib/i386-mingw32msvc/3.3.1/../../../../i386-mingw32msvc/lib/libmsvcrt.a(dzncs00546.o)
                              lexer.o (fprintf)
/opt/xmingw/lib/gcc-lib/i386-mingw32msvc/3.3.1/../../../../i386-mingw32msvc/lib/libmsvcrt.a(dzncs00670.o)
                              lexer.o (toupper)
/opt/xmingw/lib/gcc-lib/i386-mingw32msvc/3.3.1/../../../../i386-mingw32msvc/lib/libmsvcrt.a(dzncs00047.o)
                              node.o (_imp____mb_cur_max)
/opt/xmingw/lib/gcc-lib/i386-mingw32msvc/3.3.1/../../../../i386-mingw32msvc/lib/libmsvcrt.a(dzncs00344.o)
                              node.o (_imp___pctype)
/opt/xmingw/lib/gcc-lib/i386-mingw32msvc/3.3.1/../../../../i386-mingw32msvc/lib/libmsvcrt.a(dzncs00616.o)
                              node.o (printf)
/opt/xmingw/lib/gcc-lib/i386-mingw32msvc/3.3.1/../../../../i386-mingw32msvc/lib/libmsvcrt.a(dzncs00619.o)
                              node.o (puts)
/opt/xmingw/lib/gcc-lib/i386-mingw32msvc/3.3.1/../../../../i386-mingw32msvc/lib/libmsvcrt.a(dzncs00224.o)
                              node.o (_isctype)
/opt/xmingw/lib/gcc-lib/i386-mingw32msvc/3.3.1/../../../../i386-mingw32msvc/lib/libmsvcrt.a(dzncs00176.o)
                              node.o (_flsbuf)
/opt/xmingw/lib/gcc-lib/i386-mingw32msvc/3.3.1/../../../../i386-mingw32msvc/lib/libmsvcrt.a(dzncs00642.o)
                              symtab.o (strcmp)
/opt/xmingw/lib/gcc-lib/i386-mingw32msvc/3.3.1/../../../../i386-mingw32msvc/lib/libmsvcrt.a(dzncs00516.o)
                              funcs.o (atan2)
/opt/xmingw/lib/gcc-lib/i386-mingw32msvc/3.3.1/../../../../i386-mingw32msvc/lib/libmsvcrt.a(dzncs00634.o)
                              funcs.o (sin)
/opt/xmingw/lib/gcc-lib/i386-mingw32msvc/3.3.1/../../../../i386-mingw32msvc/lib/libmsvcrt.a(dzncs00526.o)
                              funcs.o (cos)
/opt/xmingw/lib/gcc-lib/i386-mingw32msvc/3.3.1/../../../../i386-mingw32msvc/lib/libmsvcrt.a(dzncs00624.o)
                              funcs.o (rand)
/opt/xmingw/lib/gcc-lib/i386-mingw32msvc/3.3.1/../../../../i386-mingw32msvc/lib/libmsvcrt.a(dzncs00395.o)
                              load_win.o (_stricmp)
/opt/xmingw/lib/gcc-lib/i386-mingw32msvc/3.3.1/../../../../i386-mingw32msvc/lib/libmsvcrt.a(dzncs00610.o)
                              ../common/tt/str.o (memmove)
/opt/xmingw/lib/gcc-lib/i386-mingw32msvc/3.3.1/../../../../i386-mingw32msvc/lib/libmsvcrt.a(dzncs00510.o)
                              /opt/xmingw/lib/gcc-lib/i386-mingw32msvc/3.3.1/libgcc.a(w32-shared-ptr.o) (abort)
/opt/xmingw/lib/gcc-lib/i386-mingw32msvc/3.3.1/../../../../i386-mingw32msvc/lib/libmsvcrt.a(dzncs00543.o)
                              /opt/xmingw/lib/gcc-lib/i386-mingw32msvc/3.3.1/../../../../i386-mingw32msvc/lib/libmingwex.a(pow.o) (floor)
/opt/xmingw/lib/gcc-lib/i386-mingw32msvc/3.3.1/../../../../i386-mingw32msvc/lib/libmsvcrt.a(dzncs00596.o)
                              /opt/xmingw/lib/gcc-lib/i386-mingw32msvc/3.3.1/../../../../i386-mingw32msvc/lib/libmingwex.a(pow.o) (ldexp)
/opt/xmingw/lib/gcc-lib/i386-mingw32msvc/3.3.1/../../../../i386-mingw32msvc/lib/libmsvcrt.a(dzncs00554.o)
                              /opt/xmingw/lib/gcc-lib/i386-mingw32msvc/3.3.1/../../../../i386-mingw32msvc/lib/libmingwex.a(pow.o) (frexp)
/opt/xmingw/lib/gcc-lib/i386-mingw32msvc/3.3.1/../../../../i386-mingw32msvc/lib/libmsvcrt.a(dznch.o)
                              /opt/xmingw/lib/gcc-lib/i386-mingw32msvc/3.3.1/../../../../i386-mingw32msvc/lib/libmsvcrt.a(dzncs00036.o) (_head_libmsvcrt_a)
/opt/xmingw/lib/gcc-lib/i386-mingw32msvc/3.3.1/../../../../i386-mingw32msvc/lib/libmsvcrt.a(dznct.o)
                              /opt/xmingw/lib/gcc-lib/i386-mingw32msvc/3.3.1/../../../../i386-mingw32msvc/lib/libmsvcrt.a(dznch.o) (_libmsvcrt_a_iname)
/opt/xmingw/lib/gcc-lib/i386-mingw32msvc/3.3.1/../../../../i386-mingw32msvc/lib/libgdi32.a(dihvbs00195.o)
                              ui_win.o (GetStockObject@4)
/opt/xmingw/lib/gcc-lib/i386-mingw32msvc/3.3.1/../../../../i386-mingw32msvc/lib/libgdi32.a(dihvbs00038.o)
                              ../common/tt/ui_compat_win.o (CreateDIBSection@24)
/opt/xmingw/lib/gcc-lib/i386-mingw32msvc/3.3.1/../../../../i386-mingw32msvc/lib/libgdi32.a(dihvbs00072.o)
                              ../common/tt/ui_compat_win.o (DeleteObject@4)
/opt/xmingw/lib/gcc-lib/i386-mingw32msvc/3.3.1/../../../../i386-mingw32msvc/lib/libgdi32.a(dihvbh.o)
                              /opt/xmingw/lib/gcc-lib/i386-mingw32msvc/3.3.1/../../../../i386-mingw32msvc/lib/libgdi32.a(dihvbs00195.o) (_head_libgdi32_a)
/opt/xmingw/lib/gcc-lib/i386-mingw32msvc/3.3.1/../../../../i386-mingw32msvc/lib/libgdi32.a(dihvbt.o)
                              /opt/xmingw/lib/gcc-lib/i386-mingw32msvc/3.3.1/../../../../i386-mingw32msvc/lib/libgdi32.a(dihvbh.o) (_libgdi32_a_iname)
/opt/xmingw/lib/gcc-lib/i386-mingw32msvc/3.3.1/../../../../i386-mingw32msvc/lib/libcomdlg32.a(dkfvbs00009.o)
                              ../common/tt/choosefile_win.o (GetOpenFileNameA@4)
/opt/xmingw/lib/gcc-lib/i386-mingw32msvc/3.3.1/../../../../i386-mingw32msvc/lib/libcomdlg32.a(dkfvbs00011.o)
                              ../common/tt/choosefile_win.o (GetSaveFileNameA@4)
/opt/xmingw/lib/gcc-lib/i386-mingw32msvc/3.3.1/../../../../i386-mingw32msvc/lib/libcomdlg32.a(dkfvbh.o)
                              /opt/xmingw/lib/gcc-lib/i386-mingw32msvc/3.3.1/../../../../i386-mingw32msvc/lib/libcomdlg32.a(dkfvbs00009.o) (_head_libcomdlg32_a)
/opt/xmingw/lib/gcc-lib/i386-mingw32msvc/3.3.1/../../../../i386-mingw32msvc/lib/libcomdlg32.a(dkfvbt.o)
                              /opt/xmingw/lib/gcc-lib/i386-mingw32msvc/3.3.1/../../../../i386-mingw32msvc/lib/libcomdlg32.a(dkfvbh.o) (_libcomdlg32_a_iname)
/opt/xmingw/lib/gcc-lib/i386-mingw32msvc/3.3.1/../../../../i386-mingw32msvc/lib/libuser32.a(dynvbs00429.o)
                              main.o (MessageBeep@4)
/opt/xmingw/lib/gcc-lib/i386-mingw32msvc/3.3.1/../../../../i386-mingw32msvc/lib/libuser32.a(dynvbs00430.o)
                              ui_win.o (MessageBoxA@16)
/opt/xmingw/lib/gcc-lib/i386-mingw32msvc/3.3.1/../../../../i386-mingw32msvc/lib/libuser32.a(dynvbs00252.o)
                              ui_win.o (GetDlgItem@8)
/opt/xmingw/lib/gcc-lib/i386-mingw32msvc/3.3.1/../../../../i386-mingw32msvc/lib/libuser32.a(dynvbs00235.o)
                              ui_win.o (GetClientRect@8)
/opt/xmingw/lib/gcc-lib/i386-mingw32msvc/3.3.1/../../../../i386-mingw32msvc/lib/libuser32.a(dynvbs00494.o)
                              ui_win.o (SendDlgItemMessageA@20)
/opt/xmingw/lib/gcc-lib/i386-mingw32msvc/3.3.1/../../../../i386-mingw32msvc/lib/libuser32.a(dynvbs00251.o)
                              ui_win.o (GetDlgCtrlID@4)
/opt/xmingw/lib/gcc-lib/i386-mingw32msvc/3.3.1/../../../../i386-mingw32msvc/lib/libuser32.a(dynvbs00482.o)
                              ui_win.o (ReleaseCapture@0)
/opt/xmingw/lib/gcc-lib/i386-mingw32msvc/3.3.1/../../../../i386-mingw32msvc/lib/libuser32.a(dynvbs00246.o)
                              ui_win.o (GetCursorPos@4)
/opt/xmingw/lib/gcc-lib/i386-mingw32msvc/3.3.1/../../../../i386-mingw32msvc/lib/libuser32.a(dynvbs00181.o)
                              ui_win.o (EndDialog@8)
/opt/xmingw/lib/gcc-lib/i386-mingw32msvc/3.3.1/../../../../i386-mingw32msvc/lib/libuser32.a(dynvbs00506.o)
                              ui_win.o (SetCapture@4)
/opt/xmingw/lib/gcc-lib/i386-mingw32msvc/3.3.1/../../../../i386-mingw32msvc/lib/libuser32.a(dynvbs00146.o)
                              ui_win.o (DialogBoxParamA@20)
/opt/xmingw/lib/gcc-lib/i386-mingw32msvc/3.3.1/../../../../i386-mingw32msvc/lib/libuser32.a(dynvbs00518.o)
                              ui.o (SetDlgItemInt@16)
/opt/xmingw/lib/gcc-lib/i386-mingw32msvc/3.3.1/../../../../i386-mingw32msvc/lib/libuser32.a(dynvbs00519.o)
                              ui.o (SetDlgItemTextA@12)
/opt/xmingw/lib/gcc-lib/i386-mingw32msvc/3.3.1/../../../../i386-mingw32msvc/lib/libuser32.a(dynvbs00522.o)
                              ui.o (SetFocus@4)
/opt/xmingw/lib/gcc-lib/i386-mingw32msvc/3.3.1/../../../../i386-mingw32msvc/lib/libuser32.a(dynvbs00254.o)
                              ui.o (GetDlgItemTextA@16)
/opt/xmingw/lib/gcc-lib/i386-mingw32msvc/3.3.1/../../../../i386-mingw32msvc/lib/libuser32.a(dynvbs00574.o)
                              ui.o (ShowWindow@8)
/opt/xmingw/lib/gcc-lib/i386-mingw32msvc/3.3.1/../../../../i386-mingw32msvc/lib/libuser32.a(dynvbs00253.o)
                              ui.o (GetDlgItemInt@16)
/opt/xmingw/lib/gcc-lib/i386-mingw32msvc/3.3.1/../../../../i386-mingw32msvc/lib/libuser32.a(dynvbs00179.o)
                              ui.o (EnableWindow@8)
/opt/xmingw/lib/gcc-lib/i386-mingw32msvc/3.3.1/../../../../i386-mingw32msvc/lib/libuser32.a(dynvbs00053.o)
                              ui_build.o (CheckDlgButton@12)
/opt/xmingw/lib/gcc-lib/i386-mingw32msvc/3.3.1/../../../../i386-mingw32msvc/lib/libuser32.a(dynvbs00383.o)
                              ui_build.o (IsDlgButtonChecked@8)
/opt/xmingw/lib/gcc-lib/i386-mingw32msvc/3.3.1/../../../../i386-mingw32msvc/lib/libuser32.a(dynvbs00247.o)
                              preview.o (GetDC@4)
/opt/xmingw/lib/gcc-lib/i386-mingw32msvc/3.3.1/../../../../i386-mingw32msvc/lib/libuser32.a(dynvbs00483.o)
                              preview.o (ReleaseDC@8)
/opt/xmingw/lib/gcc-lib/i386-mingw32msvc/3.3.1/../../../../i386-mingw32msvc/lib/libuser32.a(dynvbs00249.o)
                              ../common/tt/ui_compat_win.o (GetDesktopWindow@0)
/opt/xmingw/lib/gcc-lib/i386-mingw32msvc/3.3.1/../../../../i386-mingw32msvc/lib/libuser32.a(dynvbs00346.o)
                              ../common/tt/ui_compat_win.o (GetWindowRect@8)
/opt/xmingw/lib/gcc-lib/i386-mingw32msvc/3.3.1/../../../../i386-mingw32msvc/lib/libuser32.a(dynvbs00438.o)
                              ../common/tt/ui_compat_win.o (MoveWindow@24)
/opt/xmingw/lib/gcc-lib/i386-mingw32msvc/3.3.1/../../../../i386-mingw32msvc/lib/libuser32.a(dynvbh.o)
                              /opt/xmingw/lib/gcc-lib/i386-mingw32msvc/3.3.1/../../../../i386-mingw32msvc/lib/libuser32.a(dynvbs00429.o) (_head_libuser32_a)
/opt/xmingw/lib/gcc-lib/i386-mingw32msvc/3.3.1/../../../../i386-mingw32msvc/lib/libuser32.a(dynvbt.o)
                              /opt/xmingw/lib/gcc-lib/i386-mingw32msvc/3.3.1/../../../../i386-mingw32msvc/lib/libuser32.a(dynvbh.o) (_libuser32_a_iname)
/opt/xmingw/lib/gcc-lib/i386-mingw32msvc/3.3.1/../../../../i386-mingw32msvc/lib/libkernel32.a(dmivbs00421.o)
                              process.o (GetTickCount@0)
/opt/xmingw/lib/gcc-lib/i386-mingw32msvc/3.3.1/../../../../i386-mingw32msvc/lib/libkernel32.a(dmivbs00196.o)
                              load_win.o (FindResourceA@12)
/opt/xmingw/lib/gcc-lib/i386-mingw32msvc/3.3.1/../../../../i386-mingw32msvc/lib/libkernel32.a(dmivbs00527.o)
                              load_win.o (LoadResource@8)
/opt/xmingw/lib/gcc-lib/i386-mingw32msvc/3.3.1/../../../../i386-mingw32msvc/lib/libkernel32.a(dmivbs00541.o)
                              load_win.o (LockResource@4)
/opt/xmingw/lib/gcc-lib/i386-mingw32msvc/3.3.1/../../../../i386-mingw32msvc/lib/libkernel32.a(dmivbs00523.o)
                              load_win.o (LoadLibraryExA@12)
/opt/xmingw/lib/gcc-lib/i386-mingw32msvc/3.3.1/../../../../i386-mingw32msvc/lib/libkernel32.a(dmivbs00213.o)
                              load_win.o (FreeLibrary@4)
/opt/xmingw/lib/gcc-lib/i386-mingw32msvc/3.3.1/../../../../i386-mingw32msvc/lib/libkernel32.a(dmivbs00323.o)
                              make_win.o (GetLastError@0)
/opt/xmingw/lib/gcc-lib/i386-mingw32msvc/3.3.1/../../../../i386-mingw32msvc/lib/libkernel32.a(dmivbs00208.o)
                              make_win.o (FormatMessageA@28)
/opt/xmingw/lib/gcc-lib/i386-mingw32msvc/3.3.1/../../../../i386-mingw32msvc/lib/libkernel32.a(dmivbs00019.o)
                              make_win.o (BeginUpdateResourceA@8)
/opt/xmingw/lib/gcc-lib/i386-mingw32msvc/3.3.1/../../../../i386-mingw32msvc/lib/libkernel32.a(dmivbs00746.o)
                              make_win.o (SizeofResource@8)
/opt/xmingw/lib/gcc-lib/i386-mingw32msvc/3.3.1/../../../../i386-mingw32msvc/lib/libkernel32.a(dmivbs00776.o)
                              make_win.o (UpdateResourceA@24)
/opt/xmingw/lib/gcc-lib/i386-mingw32msvc/3.3.1/../../../../i386-mingw32msvc/lib/libkernel32.a(dmivbs00123.o)
                              make_win.o (EndUpdateResourceA@8)
/opt/xmingw/lib/gcc-lib/i386-mingw32msvc/3.3.1/../../../../i386-mingw32msvc/lib/libkernel32.a(dmivbs00333.o)
                              make_win.o (GetModuleFileNameA@12)
/opt/xmingw/lib/gcc-lib/i386-mingw32msvc/3.3.1/../../../../i386-mingw32msvc/lib/libkernel32.a(dmivbs00053.o)
                              make_win.o (CopyFileA@12)
/opt/xmingw/lib/gcc-lib/i386-mingw32msvc/3.3.1/../../../../i386-mingw32msvc/lib/libkernel32.a(dmivbs00038.o)
                              ../common/tt/file_compat_win.o (CloseHandle@4)
/opt/xmingw/lib/gcc-lib/i386-mingw32msvc/3.3.1/../../../../i386-mingw32msvc/lib/libkernel32.a(dmivbs00822.o)
                              ../common/tt/file_compat_win.o (WriteFile@20)
/opt/xmingw/lib/gcc-lib/i386-mingw32msvc/3.3.1/../../../../i386-mingw32msvc/lib/libkernel32.a(dmivbs00613.o)
                              ../common/tt/file_compat_win.o (ReadFile@20)
/opt/xmingw/lib/gcc-lib/i386-mingw32msvc/3.3.1/../../../../i386-mingw32msvc/lib/libkernel32.a(dmivbs00068.o)
                              ../common/tt/file_compat_win.o (CreateFileA@28)
/opt/xmingw/lib/gcc-lib/i386-mingw32msvc/3.3.1/../../../../i386-mingw32msvc/lib/libkernel32.a(dmivbs00108.o)
                              ../common/tt/file_compat_win.o (DeleteFileA@4)
/opt/xmingw/lib/gcc-lib/i386-mingw32msvc/3.3.1/../../../../i386-mingw32msvc/lib/libkernel32.a(dmivbs00699.o)
                              ../common/tt/file_compat_win.o (SetFilePointer@16)
/opt/xmingw/lib/gcc-lib/i386-mingw32msvc/3.3.1/../../../../i386-mingw32msvc/lib/libkernel32.a(dmivbs00311.o)
                              ../common/tt/file_compat_win.o (GetFileSize@8)
/opt/xmingw/lib/gcc-lib/i386-mingw32msvc/3.3.1/../../../../i386-mingw32msvc/lib/libkernel32.a(dmivbs00690.o)
                              ../common/tt/file_compat_win.o (SetEndOfFile@4)
/opt/xmingw/lib/gcc-lib/i386-mingw32msvc/3.3.1/../../../../i386-mingw32msvc/lib/libkernel32.a(dmivbs00431.o)
                              ../common/tt/compat_win.o (GetVersionExA@4)
/opt/xmingw/lib/gcc-lib/i386-mingw32msvc/3.3.1/../../../../i386-mingw32msvc/lib/libkernel32.a(dmivbs00175.o)
                              /opt/xmingw/lib/gcc-lib/i386-mingw32msvc/3.3.1/libgcc.a(w32-shared-ptr.o) (FindAtomA@4)
/opt/xmingw/lib/gcc-lib/i386-mingw32msvc/3.3.1/../../../../i386-mingw32msvc/lib/libkernel32.a(dmivbs00001.o)
                              /opt/xmingw/lib/gcc-lib/i386-mingw32msvc/3.3.1/libgcc.a(w32-shared-ptr.o) (AddAtomA@4)
/opt/xmingw/lib/gcc-lib/i386-mingw32msvc/3.3.1/../../../../i386-mingw32msvc/lib/libkernel32.a(dmivbs00220.o)
                              /opt/xmingw/lib/gcc-lib/i386-mingw32msvc/3.3.1/libgcc.a(w32-shared-ptr.o) (GetAtomNameA@12)
/opt/xmingw/lib/gcc-lib/i386-mingw32msvc/3.3.1/../../../../i386-mingw32msvc/lib/libkernel32.a(dmivbh.o)
                              /opt/xmingw/lib/gcc-lib/i386-mingw32msvc/3.3.1/../../../../i386-mingw32msvc/lib/libkernel32.a(dmivbs00421.o) (_head_libkernel32_a)
/opt/xmingw/lib/gcc-lib/i386-mingw32msvc/3.3.1/../../../../i386-mingw32msvc/lib/libkernel32.a(dmivbt.o)
                              /opt/xmingw/lib/gcc-lib/i386-mingw32msvc/3.3.1/../../../../i386-mingw32msvc/lib/libkernel32.a(dmivbh.o) (_libkernel32_a_iname)

Allocating common symbols
Common symbol       size              file

varused             0x400             node.o
__DTOR_LIST__       0x10              /opt/xmingw/lib/gcc-lib/i386-mingw32msvc/3.3.1/libgcc.a(_ctors.o)
__w32_sharedptr_terminate
                    0x10              /opt/xmingw/lib/gcc-lib/i386-mingw32msvc/3.3.1/libgcc.a(w32-shared-ptr.o)
ctls                0x20              ui_build.o
yychar              0x10              parser.o
map                 0x1000            main.o
preview_hwnd        0x10              ui_win.o
errstart            0x10              main.o
cell                0x400             main.o
preview_rect        0x10              preview.o
needinput           0x10              process.o
maps                0x10              ui_build.o
errstr              0x10              parser.o
zoomfactor          0x10              ui.o
inarglist           0x190             parser.o
hash_table          0x200             symtab.o
var                 0x400             node.o
srcradused          0x10              main.o
arglistptr          0x10              parser.o
gpb                 0x10              main.o
__w32_sharedptr     0x10              /opt/xmingw/lib/gcc-lib/i386-mingw32msvc/3.3.1/libgcc.a(w32-shared-ptr.o)
errpos              0x10              main.o
tokstart            0x10              lexer.o
err                 0x10              main.o
preview_handle      0x10              preview.o
node_list           0x10              node.o
yyleng              0x10              lexer.o
__CTOR_LIST__       0x10              /opt/xmingw/lib/gcc-lib/i386-mingw32msvc/3.3.1/libgcc.a(_ctors.o)
fitzoom             0x10              ui.o
preview_h           0x10              preview.o
gdata               0x10              main.o
parsetree           0x10              parser.o
yynerrs             0x10              parser.o
preview_w           0x10              preview.o
preview_pmap        0x40              preview.o
yylval              0x10              parser.o
tokpos              0x10              lexer.o
expr                0x10              main.o
__w32_sharedptr_unexpected
                    0x10              /opt/xmingw/lib/gcc-lib/i386-mingw32msvc/3.3.1/libgcc.a(w32-shared-ptr.o)
preview_scroll      0x10              preview.o
chunksize           0x10              main.o
preview_pmask       0x20              preview.o
nplanes             0x10              main.o
allocs              0x10              node.o
toprow              0x10              main.o
event_id            0x10              make.o
yytext              0x10              lexer.o
slider              0x20              main.o
tree                0x10              main.o

Memory Configuration

Name             Origin             Length             Attributes
*default*        0x00000000         0xffffffff

Linker script and memory map

                0x6d640000                __image_base__ = 0x6d640000
                0x00000001                __dll__ = 0x1
                0x00001000                __section_alignment__ = 0x1000
                0x00000200                __file_alignment__ = 0x200
                0x00000004                __major_os_version__ = 0x4
                0x00000000                __minor_os_version__ = 0x0
                0x00000001                __major_image_version__ = 0x1
                0x00000000                __minor_image_version__ = 0x0
                0x00000004                __major_subsystem_version__ = 0x4
                0x00000000                __minor_subsystem_version__ = 0x0
                0x00000002                __subsystem__ = 0x2
                0x00200000                __size_of_stack_reserve__ = 0x200000
                0x00001000                __size_of_stack_commit__ = 0x1000
                0x00100000                __size_of_heap_reserve__ = 0x100000
                0x00001000                __size_of_heap_commit__ = 0x1000
                0x00000000                __loader_flags__ = 0x0
LOAD /opt/xmingw/lib/gcc-lib/i386-mingw32msvc/3.3.1/../../../../i386-mingw32msvc/lib/dllcrt2.o
LOAD /opt/xmingw/lib/gcc-lib/i386-mingw32msvc/3.3.1/crtbegin.o
LOAD FilterFoundry.exp
LOAD main.o
LOAD ui_win.o
LOAD ui.o
LOAD ui_build.o
LOAD ui_build_win.o
LOAD preview.o
LOAD read.o
LOAD save.o
LOAD parser.o
LOAD lexer.o
LOAD node.o
LOAD symtab.o
LOAD funcs.o
LOAD trigtab.o
LOAD process.o
LOAD load_win.o
LOAD make_win.o
LOAD make.o
LOAD scripting.o
LOAD ../common/tt/str.o
LOAD ../common/tt/sprintf_tiny.o
LOAD ../common/tt/ui_compat_win.o
LOAD ../common/tt/file_compat_win.o
LOAD ../common/tt/choosefile_win.o
LOAD ../common/tt/compat_string.o
LOAD ../common/tt/compat_win.o
LOAD ../common/tt/dbg_win.o
LOAD ../common/adobeplugin/dllmain.o
LOAD res.o
LOAD /opt/xmingw/lib/gcc-lib/i386-mingw32msvc/3.3.1/../../../../i386-mingw32msvc/lib/libmingw32.a
LOAD /opt/xmingw/lib/gcc-lib/i386-mingw32msvc/3.3.1/libgcc.a
LOAD /opt/xmingw/lib/gcc-lib/i386-mingw32msvc/3.3.1/../../../../i386-mingw32msvc/lib/libmoldname.a
LOAD /opt/xmingw/lib/gcc-lib/i386-mingw32msvc/3.3.1/../../../../i386-mingw32msvc/lib/libmingwex.a
LOAD /opt/xmingw/lib/gcc-lib/i386-mingw32msvc/3.3.1/../../../../i386-mingw32msvc/lib/libmsvcrt.a
LOAD /opt/xmingw/lib/gcc-lib/i386-mingw32msvc/3.3.1/../../../../i386-mingw32msvc/lib/libgdi32.a
LOAD /opt/xmingw/lib/gcc-lib/i386-mingw32msvc/3.3.1/../../../../i386-mingw32msvc/lib/libcomdlg32.a
LOAD /opt/xmingw/lib/gcc-lib/i386-mingw32msvc/3.3.1/../../../../i386-mingw32msvc/lib/libuser32.a
LOAD /opt/xmingw/lib/gcc-lib/i386-mingw32msvc/3.3.1/../../../../i386-mingw32msvc/lib/libkernel32.a
LOAD /opt/xmingw/lib/gcc-lib/i386-mingw32msvc/3.3.1/../../../../i386-mingw32msvc/lib/libadvapi32.a
LOAD /opt/xmingw/lib/gcc-lib/i386-mingw32msvc/3.3.1/../../../../i386-mingw32msvc/lib/libshell32.a
LOAD /opt/xmingw/lib/gcc-lib/i386-mingw32msvc/3.3.1/../../../../i386-mingw32msvc/lib/libmingw32.a
LOAD /opt/xmingw/lib/gcc-lib/i386-mingw32msvc/3.3.1/libgcc.a
LOAD /opt/xmingw/lib/gcc-lib/i386-mingw32msvc/3.3.1/../../../../i386-mingw32msvc/lib/libmoldname.a
LOAD /opt/xmingw/lib/gcc-lib/i386-mingw32msvc/3.3.1/../../../../i386-mingw32msvc/lib/libmingwex.a
LOAD /opt/xmingw/lib/gcc-lib/i386-mingw32msvc/3.3.1/../../../../i386-mingw32msvc/lib/libmsvcrt.a
LOAD /opt/xmingw/lib/gcc-lib/i386-mingw32msvc/3.3.1/crtend.o

.text           0x6d641000     0xd200
 *(.init)
 *(.text)
 .text          0x6d641000      0x160 /opt/xmingw/lib/gcc-lib/i386-mingw32msvc/3.3.1/../../../../i386-mingw32msvc/lib/dllcrt2.o
                0x6d641100                atexit
                0x6d641130                _onexit
                0x6d641000                DllMainCRTStartup@12
 .text          0x6d641160       0x10 /opt/xmingw/lib/gcc-lib/i386-mingw32msvc/3.3.1/crtbegin.o
                0x6d641160                __do_sjlj_init
 .text          0x6d641170      0x580 main.o
                0x6d641180                PluginMain
                0x6d641550                DoStart
                0x6d6414d0                RequestNext
                0x6d641340                checkandinitparams
                0x6d6415a0                DoContinue
                0x6d641690                DoFinish
                0x6d641480                DoPrepare
 .text          0x6d6416f0      0x760 ui_win.o
                0x6d641df0                maindialog
                0x6d6419d0                simplealert
                0x6d641a10                maindlgproc@16
                0x6d6418c0                DoAbout
 .text          0x6d641e50     0x1300 ui.o
                0x6d642390                checksl
                0x6d6426e0                maindlgupdate
                0x6d642930                maindlginit
                0x6d642140                updateexpr
                0x6d642060                updateglobals
                0x6d642cc0                maindlgitem
                0x6d6425a0                slidermoved
                0x6d6430c0                alertuser
                0x6d642610                slidertextchanged
                0x6d642270                updatezoom
                0x6d642510                checksliders
                0x6d641e70                updatedialog
 .text          0x6d643150      0x750 ui_build.o
                0x6d6435f0                builddlgitem
                0x6d643180                builddlginit
 .text          0x6d6438a0       0xd0 ui_build_win.o
                0x6d6438a0                builddlgproc@16
                0x6d643920                builddialog
 .text          0x6d643970      0xa20 preview.o
                0x6d643ad0                dispose_preview
                0x6d643970                setup_preview
                0x6d6441e0                drawpreview
                0x6d643b90                recalc_preview
 .text          0x6d644390      0x6a0 read.o
                0x6d6447a0                readPARM
                0x6d644980                readfile
                0x6d6444c0                readparams
                0x6d6448b0                readfileintohandle
 .text          0x6d644a30      0x500 save.o
                0x6d644d50                savehandleintofile
                0x6d644af0                saveparams
                0x6d644a30                putstr
                0x6d644e20                savefile
 .text          0x6d644f30     0x1cc0 parser.o
                0x6d644f60                pushflag
                0x6d646480                yyparse
                0x6d646b60                parseexpr
                0x6d646bd0                yyerror
 .text          0x6d646bf0     0x15a0 lexer.o
                0x6d647ec0                yy_create_buffer
                0x6d647e80                yy_load_buffer_state
                0x6d647e20                yy_switch_to_buffer
                0x6d647dd0                yyrestart
                0x6d647ff0                yy_scan_buffer
                0x6d647fa0                yy_flush_buffer
                0x6d6480b0                yy_scan_bytes
                0x6d647f10                yy_delete_buffer
                0x6d648080                yy_scan_string
                0x6d647f70                yy_init_buffer
                0x6d6472b0                yylex
 .text          0x6d648190      0xd20 node.o
                0x6d648190                newnode
                0x6d648dd0                freetree
                0x6d648480                eval
                0x6d6481d0                freenodes
                0x6d648210                freeallnodes
                0x6d648e20                checkvars
                0x6d6482e0                dumptree
 .text          0x6d648eb0      0x2a0 symtab.o
                0x6d648eb0                djb2
                0x6d649120                insert
                0x6d648f20                init_symtab
                0x6d6490c0                lookup
                0x6d649000                dump_symbols
 .text          0x6d649150      0x7d0 funcs.o
                0x6d649530                ff_sqr
                0x6d649300                ff_min
                0x6d649230                ff_ctl
                0x6d6494a0                ff_scl
                0x6d649450                ff_mix
                0x6d6493b0                ff_dif
                0x6d6495a0                ff_tan
                0x6d649740                ff_put
                0x6d649320                ff_max
                0x6d649700                ff_c2m
                0x6d649380                ff_sub
                0x6d649360                ff_add
                0x6d649760                ff_cnv
                0x6d6492a0                ff_map
                0x6d649150                ff_src
                0x6d6493d0                ff_rnd
                0x6d649550                ff_sin
                0x6d649250                ff_val
                0x6d6495e0                ff_r2x
                0x6d649340                ff_abs
                0x6d6496a0                ff_c2d
                0x6d6491d0                ff_rad
                0x6d649640                ff_r2y
                0x6d649720                ff_get
                0x6d6494f0                isqrt
                0x6d649560                ff_cos
 .text          0x6d649920      0x7a0 process.o
                0x6d649cd0                process
                0x6d649f00                process_scaled
                0x6d649920                setup
                0x6d649a70                evalpixel
 .text          0x6d64a0c0      0x280 load_win.o
                0x6d64a0d0                readPARMresource
                0x6d64a220                loadfile
 .text          0x6d64a340      0x6e0 make_win.o
                0x6d64a970                make_standalone
                0x6d64a470                doresources
                0x6d64a350                dbglasterror
 .text          0x6d64aa20      0x2e0 make.o
                0x6d64ac10                fixaete
                0x6d64aa20                printablehash
                0x6d64aad0                fixpipl
 .text          0x6d64ad00      0x5d0 scripting.o
                0x6d64ae50                ReadScriptParamsOnRead
                0x6d64b150                HostDescriptorAvailable
                0x6d64aff0                WriteScriptParamsOnRead
                0x6d64b270                HostCloseWriter
                0x6d64ad90                get_cstring
                0x6d64b220                HostCloseReader
                0x6d64ad00                put_cstring
 .text          0x6d64b2d0      0x270 ../common/tt/str.o
                0x6d64b440                my_strdup
                0x6d64b490                PLcstrcpy
                0x6d64b3e0                cat
                0x6d64b4e0                PLcstrcat
                0x6d64b410                my_memset
                0x6d64b390                myc2pstrcpy
                0x6d64b350                myp2cstrcpy
                0x6d64b2d0                myc2pstr
                0x6d64b310                myp2cstr
 .text          0x6d64b540      0x3e0 ../common/tt/sprintf_tiny.o
                0x6d64b720                vsprintf_tiny
                0x6d64b5e0                int_str
                0x6d64b540                int_exp
                0x6d64b8f0                sprintf_tiny
                0x6d64b590                udigits
                0x6d64b670                float_str
                0x6d64b620                int_strpad
 .text          0x6d64b920      0x230 ../common/tt/ui_compat_win.o
                0x6d64b940                newbitmap
                0x6d64ba40                disposebitmap
                0x6d64ba80                centre_window
 .text          0x6d64bb50      0x330 ../common/tt/file_compat_win.o
                0x6d64bd30                FSpDelete
                0x6d64bc30                FSpOpenDF
                0x6d64be30                SetEOF
                0x6d64be00                GetEOF
                0x6d64bdb0                SetFPos
                0x6d64bcb0                FSpCreate
                0x6d64bd70                GetFPos
                0x6d64bbd0                FSRead
                0x6d64bb80                FSWrite
                0x6d64bb50                FSClose
 .text          0x6d64be80      0x220 ../common/tt/choosefile_win.o
                0x6d64c090                completesave
                0x6d64be80                choosefiletypes
                0x6d64bfa0                putfile
                0x6d64bec0                choosefile
 .text          0x6d64c0a0      0x170 ../common/tt/compat_string.o
                0x6d64c160                PLstrcmp
                0x6d64c1d0                NumToString
                0x6d64c120                PLstrrchr
                0x6d64c0a0                PLstrcpy
                0x6d64c0d0                PLstrcat
 .text          0x6d64c210       0x50 ../common/tt/compat_win.o
                0x6d64c210                isWin32NT
 .text          0x6d64c260       0x40 ../common/tt/dbg_win.o
                0x6d64c270                dbg
 .text          0x6d64c2a0       0x20 ../common/adobeplugin/dllmain.o
                0x6d64c2a0                DllMain@12
 .text          0x6d64c2c0       0xb0 /opt/xmingw/lib/gcc-lib/i386-mingw32msvc/3.3.1/../../../../i386-mingw32msvc/lib/libmingw32.a(gccmain.o)
                0x6d64c350                __main
                0x6d64c2c0                __do_global_dtors
                0x6d64c2f0                __do_global_ctors
 .text          0x6d64c370       0x70 /opt/xmingw/lib/gcc-lib/i386-mingw32msvc/3.3.1/../../../../i386-mingw32msvc/lib/libmingw32.a(pseudo-reloc.o)
                0x6d64c3b0                _pei386_runtime_relocator
 .text          0x6d64c3e0      0x320 /opt/xmingw/lib/gcc-lib/i386-mingw32msvc/3.3.1/libgcc.a(w32-shared-ptr.o)
                0x6d64c4a0                __w32_sharedptr_initialize
 .text          0x6d64c700       0x30 /opt/xmingw/lib/gcc-lib/i386-mingw32msvc/3.3.1/libgcc.a(_chkstk.o)
                0x6d64c700                __chkstk
                0x6d64c700                _alloca
 .text          0x6d64c730      0xfc0 /opt/xmingw/lib/gcc-lib/i386-mingw32msvc/3.3.1/../../../../i386-mingw32msvc/lib/libmingwex.a(pow.o)
                0x6d64c940                pow
 .text          0x6d64d6f0       0x50 /opt/xmingw/lib/gcc-lib/i386-mingw32msvc/3.3.1/../../../../i386-mingw32msvc/lib/libmingwex.a(fp_consts.o)
                0x6d64d6f0                __QNAN
                0x6d64d730                nan
                0x6d64d700                __SNAN
                0x6d64d720                __DENORM
                0x6d64d710                __INF
 .text          0x6d64d740      0x300 /opt/xmingw/lib/gcc-lib/i386-mingw32msvc/3.3.1/../../../../i386-mingw32msvc/lib/libmingwex.a(powi.o)
                0x6d64d780                __powi
 .text          0x6d64da40       0x30 /opt/xmingw/lib/gcc-lib/i386-mingw32msvc/3.3.1/../../../../i386-mingw32msvc/lib/libmingwex.a(signbit.o)
                0x6d64da40                __signbit
                0x6d64da40                signbit
 .text          0x6d64da70       0x30 /opt/xmingw/lib/gcc-lib/i386-mingw32msvc/3.3.1/../../../../i386-mingw32msvc/lib/libmingwex.a(fpclassify.o)
                0x6d64da70                __fpclassify
 .text          0x6d64daa0       0x50 /opt/xmingw/lib/gcc-lib/i386-mingw32msvc/3.3.1/../../../../i386-mingw32msvc/lib/libmingwex.a(isnan.o)
                0x6d64daa0                isnan
                0x6d64daa0                __isnan
 .text          0x6d64daf0        0x8 /opt/xmingw/lib/gcc-lib/i386-mingw32msvc/3.3.1/../../../../i386-mingw32msvc/lib/libmsvcrt.a(dzncs00036.o)
                0x6d64daf0                __dllonexit
 *fill*         0x6d64daf8        0x8 00
 .text          0x6d64db00        0x8 /opt/xmingw/lib/gcc-lib/i386-mingw32msvc/3.3.1/../../../../i386-mingw32msvc/lib/libmsvcrt.a(dzncs00537.o)
                0x6d64db00                fflush
 *fill*         0x6d64db08        0x8 00
 .text          0x6d64db10        0x8 /opt/xmingw/lib/gcc-lib/i386-mingw32msvc/3.3.1/../../../../i386-mingw32msvc/lib/libmsvcrt.a(dzncs00552.o)
                0x6d64db10                free
 *fill*         0x6d64db18        0x8 00
 .text          0x6d64db20        0x8 /opt/xmingw/lib/gcc-lib/i386-mingw32msvc/3.3.1/../../../../i386-mingw32msvc/lib/libmsvcrt.a(dzncs00147.o)
                0x6d64db20                _errno
 *fill*         0x6d64db28        0x8 00
 .text          0x6d64db30        0x8 /opt/xmingw/lib/gcc-lib/i386-mingw32msvc/3.3.1/../../../../i386-mingw32msvc/lib/libmsvcrt.a(dzncs00603.o)
                0x6d64db30                malloc
 *fill*         0x6d64db38        0x8 00
 .text          0x6d64db40        0x8 /opt/xmingw/lib/gcc-lib/i386-mingw32msvc/3.3.1/../../../../i386-mingw32msvc/lib/libmsvcrt.a(dzncs00640.o)
                0x6d64db40                strcat
 *fill*         0x6d64db48        0x8 00
 .text          0x6d64db50        0x8 /opt/xmingw/lib/gcc-lib/i386-mingw32msvc/3.3.1/../../../../i386-mingw32msvc/lib/libmsvcrt.a(dzncs00636.o)
                0x6d64db50                sprintf
 *fill*         0x6d64db58        0x8 00
 .text          0x6d64db60        0x8 /opt/xmingw/lib/gcc-lib/i386-mingw32msvc/3.3.1/../../../../i386-mingw32msvc/lib/libmsvcrt.a(dzncs00648.o)
                0x6d64db60                strlen
 *fill*         0x6d64db68        0x8 00
 .text          0x6d64db70        0x8 /opt/xmingw/lib/gcc-lib/i386-mingw32msvc/3.3.1/../../../../i386-mingw32msvc/lib/libmsvcrt.a(dzncs00644.o)
                0x6d64db70                strcpy
 *fill*         0x6d64db78        0x8 00
 .text          0x6d64db80        0x8 /opt/xmingw/lib/gcc-lib/i386-mingw32msvc/3.3.1/../../../../i386-mingw32msvc/lib/libmsvcrt.a(dzncs00611.o)
                0x6d64db80                memset
 *fill*         0x6d64db88        0x8 00
 .text          0x6d64db90        0x8 /opt/xmingw/lib/gcc-lib/i386-mingw32msvc/3.3.1/../../../../i386-mingw32msvc/lib/libmsvcrt.a(dzncs00638.o)
                0x6d64db90                srand
 *fill*         0x6d64db98        0x8 00
 .text          0x6d64dba0        0x8 /opt/xmingw/lib/gcc-lib/i386-mingw32msvc/3.3.1/../../../../i386-mingw32msvc/lib/libmsvcrt.a(dzncs00609.o)
                0x6d64dba0                memcpy
 *fill*         0x6d64dba8        0x8 00
 .text          0x6d64dbb0        0x8 /opt/xmingw/lib/gcc-lib/i386-mingw32msvc/3.3.1/../../../../i386-mingw32msvc/lib/libmsvcrt.a(dzncs00519.o)
                0x6d64dbb0                atoi
 *fill*         0x6d64dbb8        0x8 00
 .text          0x6d64dbc0        0x8 /opt/xmingw/lib/gcc-lib/i386-mingw32msvc/3.3.1/../../../../i386-mingw32msvc/lib/libmsvcrt.a(dzncs00625.o)
                0x6d64dbc0                realloc
 *fill*         0x6d64dbc8        0x8 00
 .text          0x6d64dbd0        0x8 /opt/xmingw/lib/gcc-lib/i386-mingw32msvc/3.3.1/../../../../i386-mingw32msvc/lib/libmsvcrt.a(dzncs00531.o)
                0x6d64dbd0                exit
 *fill*         0x6d64dbd8        0x8 00
 .text          0x6d64dbe0        0x8 /opt/xmingw/lib/gcc-lib/i386-mingw32msvc/3.3.1/../../../../i386-mingw32msvc/lib/libmsvcrt.a(dzncs00546.o)
                0x6d64dbe0                fprintf
 *fill*         0x6d64dbe8        0x8 00
 .text          0x6d64dbf0        0x8 /opt/xmingw/lib/gcc-lib/i386-mingw32msvc/3.3.1/../../../../i386-mingw32msvc/lib/libmsvcrt.a(dzncs00670.o)
                0x6d64dbf0                toupper
 *fill*         0x6d64dbf8        0x8 00
 .text          0x6d64dc00        0x8 /opt/xmingw/lib/gcc-lib/i386-mingw32msvc/3.3.1/../../../../i386-mingw32msvc/lib/libmsvcrt.a(dzncs00616.o)
                0x6d64dc00                printf
 *fill*         0x6d64dc08        0x8 00
 .text          0x6d64dc10        0x8 /opt/xmingw/lib/gcc-lib/i386-mingw32msvc/3.3.1/../../../../i386-mingw32msvc/lib/libmsvcrt.a(dzncs00619.o)
                0x6d64dc10                puts
 *fill*         0x6d64dc18        0x8 00
 .text          0x6d64dc20        0x8 /opt/xmingw/lib/gcc-lib/i386-mingw32msvc/3.3.1/../../../../i386-mingw32msvc/lib/libmsvcrt.a(dzncs00224.o)
                0x6d64dc20                _isctype
 *fill*         0x6d64dc28        0x8 00
 .text          0x6d64dc30        0x8 /opt/xmingw/lib/gcc-lib/i386-mingw32msvc/3.3.1/../../../../i386-mingw32msvc/lib/libmsvcrt.a(dzncs00176.o)
                0x6d64dc30                _flsbuf
 *fill*         0x6d64dc38        0x8 00
 .text          0x6d64dc40        0x8 /opt/xmingw/lib/gcc-lib/i386-mingw32msvc/3.3.1/../../../../i386-mingw32msvc/lib/libmsvcrt.a(dzncs00642.o)
                0x6d64dc40                strcmp
 *fill*         0x6d64dc48        0x8 00
 .text          0x6d64dc50        0x8 /opt/xmingw/lib/gcc-lib/i386-mingw32msvc/3.3.1/../../../../i386-mingw32msvc/lib/libmsvcrt.a(dzncs00516.o)
                0x6d64dc50                atan2
 *fill*         0x6d64dc58        0x8 00
 .text          0x6d64dc60        0x8 /opt/xmingw/lib/gcc-lib/i386-mingw32msvc/3.3.1/../../../../i386-mingw32msvc/lib/libmsvcrt.a(dzncs00634.o)
                0x6d64dc60                sin
 *fill*         0x6d64dc68        0x8 00
 .text          0x6d64dc70        0x8 /opt/xmingw/lib/gcc-lib/i386-mingw32msvc/3.3.1/../../../../i386-mingw32msvc/lib/libmsvcrt.a(dzncs00526.o)
                0x6d64dc70                cos
 *fill*         0x6d64dc78        0x8 00
 .text          0x6d64dc80        0x8 /opt/xmingw/lib/gcc-lib/i386-mingw32msvc/3.3.1/../../../../i386-mingw32msvc/lib/libmsvcrt.a(dzncs00624.o)
                0x6d64dc80                rand
 *fill*         0x6d64dc88        0x8 00
 .text          0x6d64dc90        0x8 /opt/xmingw/lib/gcc-lib/i386-mingw32msvc/3.3.1/../../../../i386-mingw32msvc/lib/libmsvcrt.a(dzncs00395.o)
                0x6d64dc90                _stricmp
 *fill*         0x6d64dc98        0x8 00
 .text          0x6d64dca0        0x8 /opt/xmingw/lib/gcc-lib/i386-mingw32msvc/3.3.1/../../../../i386-mingw32msvc/lib/libmsvcrt.a(dzncs00610.o)
                0x6d64dca0                memmove
 *fill*         0x6d64dca8        0x8 00
 .text          0x6d64dcb0        0x8 /opt/xmingw/lib/gcc-lib/i386-mingw32msvc/3.3.1/../../../../i386-mingw32msvc/lib/libmsvcrt.a(dzncs00510.o)
                0x6d64dcb0                abort
 *fill*         0x6d64dcb8        0x8 00
 .text          0x6d64dcc0        0x8 /opt/xmingw/lib/gcc-lib/i386-mingw32msvc/3.3.1/../../../../i386-mingw32msvc/lib/libmsvcrt.a(dzncs00543.o)
                0x6d64dcc0                floor
 *fill*         0x6d64dcc8        0x8 00
 .text          0x6d64dcd0        0x8 /opt/xmingw/lib/gcc-lib/i386-mingw32msvc/3.3.1/../../../../i386-mingw32msvc/lib/libmsvcrt.a(dzncs00596.o)
                0x6d64dcd0                ldexp
 *fill*         0x6d64dcd8        0x8 00
 .text          0x6d64dce0        0x8 /opt/xmingw/lib/gcc-lib/i386-mingw32msvc/3.3.1/../../../../i386-mingw32msvc/lib/libmsvcrt.a(dzncs00554.o)
                0x6d64dce0                frexp
 *fill*         0x6d64dce8        0x8 00
 .text          0x6d64dcf0        0x8 /opt/xmingw/lib/gcc-lib/i386-mingw32msvc/3.3.1/../../../../i386-mingw32msvc/lib/libgdi32.a(dihvbs00195.o)
                0x6d64dcf0                GetStockObject@4
 *fill*         0x6d64dcf8        0x8 00
 .text          0x6d64dd00        0x8 /opt/xmingw/lib/gcc-lib/i386-mingw32msvc/3.3.1/../../../../i386-mingw32msvc/lib/libgdi32.a(dihvbs00038.o)
                0x6d64dd00                CreateDIBSection@24
 *fill*         0x6d64dd08        0x8 00
 .text          0x6d64dd10        0x8 /opt/xmingw/lib/gcc-lib/i386-mingw32msvc/3.3.1/../../../../i386-mingw32msvc/lib/libgdi32.a(dihvbs00072.o)
                0x6d64dd10                DeleteObject@4
 *fill*         0x6d64dd18        0x8 00
 .text          0x6d64dd20        0x8 /opt/xmingw/lib/gcc-lib/i386-mingw32msvc/3.3.1/../../../../i386-mingw32msvc/lib/libcomdlg32.a(dkfvbs00009.o)
                0x6d64dd20                GetOpenFileNameA@4
 *fill*         0x6d64dd28        0x8 00
 .text          0x6d64dd30        0x8 /opt/xmingw/lib/gcc-lib/i386-mingw32msvc/3.3.1/../../../../i386-mingw32msvc/lib/libcomdlg32.a(dkfvbs00011.o)
                0x6d64dd30                GetSaveFileNameA@4
 *fill*         0x6d64dd38        0x8 00
 .text          0x6d64dd40        0x8 /opt/xmingw/lib/gcc-lib/i386-mingw32msvc/3.3.1/../../../../i386-mingw32msvc/lib/libuser32.a(dynvbs00429.o)
                0x6d64dd40                MessageBeep@4
 *fill*         0x6d64dd48        0x8 00
 .text          0x6d64dd50        0x8 /opt/xmingw/lib/gcc-lib/i386-mingw32msvc/3.3.1/../../../../i386-mingw32msvc/lib/libuser32.a(dynvbs00430.o)
                0x6d64dd50                MessageBoxA@16
 *fill*         0x6d64dd58        0x8 00
 .text          0x6d64dd60        0x8 /opt/xmingw/lib/gcc-lib/i386-mingw32msvc/3.3.1/../../../../i386-mingw32msvc/lib/libuser32.a(dynvbs00252.o)
                0x6d64dd60                GetDlgItem@8
 *fill*         0x6d64dd68        0x8 00
 .text          0x6d64dd70        0x8 /opt/xmingw/lib/gcc-lib/i386-mingw32msvc/3.3.1/../../../../i386-mingw32msvc/lib/libuser32.a(dynvbs00235.o)
                0x6d64dd70                GetClientRect@8
 *fill*         0x6d64dd78        0x8 00
 .text          0x6d64dd80        0x8 /opt/xmingw/lib/gcc-lib/i386-mingw32msvc/3.3.1/../../../../i386-mingw32msvc/lib/libuser32.a(dynvbs00494.o)
                0x6d64dd80                SendDlgItemMessageA@20
 *fill*         0x6d64dd88        0x8 00
 .text          0x6d64dd90        0x8 /opt/xmingw/lib/gcc-lib/i386-mingw32msvc/3.3.1/../../../../i386-mingw32msvc/lib/libuser32.a(dynvbs00251.o)
                0x6d64dd90                GetDlgCtrlID@4
 *fill*         0x6d64dd98        0x8 00
 .text          0x6d64dda0        0x8 /opt/xmingw/lib/gcc-lib/i386-mingw32msvc/3.3.1/../../../../i386-mingw32msvc/lib/libuser32.a(dynvbs00482.o)
                0x6d64dda0                ReleaseCapture@0
 *fill*         0x6d64dda8        0x8 00
 .text          0x6d64ddb0        0x8 /opt/xmingw/lib/gcc-lib/i386-mingw32msvc/3.3.1/../../../../i386-mingw32msvc/lib/libuser32.a(dynvbs00246.o)
                0x6d64ddb0                GetCursorPos@4
 *fill*         0x6d64ddb8        0x8 00
 .text          0x6d64ddc0        0x8 /opt/xmingw/lib/gcc-lib/i386-mingw32msvc/3.3.1/../../../../i386-mingw32msvc/lib/libuser32.a(dynvbs00181.o)
                0x6d64ddc0                EndDialog@8
 *fill*         0x6d64ddc8        0x8 00
 .text          0x6d64ddd0        0x8 /opt/xmingw/lib/gcc-lib/i386-mingw32msvc/3.3.1/../../../../i386-mingw32msvc/lib/libuser32.a(dynvbs00506.o)
                0x6d64ddd0                SetCapture@4
 *fill*         0x6d64ddd8        0x8 00
 .text          0x6d64dde0        0x8 /opt/xmingw/lib/gcc-lib/i386-mingw32msvc/3.3.1/../../../../i386-mingw32msvc/lib/libuser32.a(dynvbs00146.o)
                0x6d64dde0                DialogBoxParamA@20
 *fill*         0x6d64dde8        0x8 00
 .text          0x6d64ddf0        0x8 /opt/xmingw/lib/gcc-lib/i386-mingw32msvc/3.3.1/../../../../i386-mingw32msvc/lib/libuser32.a(dynvbs00518.o)
                0x6d64ddf0                SetDlgItemInt@16
 *fill*         0x6d64ddf8        0x8 00
 .text          0x6d64de00        0x8 /opt/xmingw/lib/gcc-lib/i386-mingw32msvc/3.3.1/../../../../i386-mingw32msvc/lib/libuser32.a(dynvbs00519.o)
                0x6d64de00                SetDlgItemTextA@12
 *fill*         0x6d64de08        0x8 00
 .text          0x6d64de10        0x8 /opt/xmingw/lib/gcc-lib/i386-mingw32msvc/3.3.1/../../../../i386-mingw32msvc/lib/libuser32.a(dynvbs00522.o)
                0x6d64de10                SetFocus@4
 *fill*         0x6d64de18        0x8 00
 .text          0x6d64de20        0x8 /opt/xmingw/lib/gcc-lib/i386-mingw32msvc/3.3.1/../../../../i386-mingw32msvc/lib/libuser32.a(dynvbs00254.o)
                0x6d64de20                GetDlgItemTextA@16
 *fill*         0x6d64de28        0x8 00
 .text          0x6d64de30        0x8 /opt/xmingw/lib/gcc-lib/i386-mingw32msvc/3.3.1/../../../../i386-mingw32msvc/lib/libuser32.a(dynvbs00574.o)
                0x6d64de30                ShowWindow@8
 *fill*         0x6d64de38        0x8 00
 .text          0x6d64de40        0x8 /opt/xmingw/lib/gcc-lib/i386-mingw32msvc/3.3.1/../../../../i386-mingw32msvc/lib/libuser32.a(dynvbs00253.o)
                0x6d64de40                GetDlgItemInt@16
 *fill*         0x6d64de48        0x8 00
 .text          0x6d64de50        0x8 /opt/xmingw/lib/gcc-lib/i386-mingw32msvc/3.3.1/../../../../i386-mingw32msvc/lib/libuser32.a(dynvbs00179.o)
                0x6d64de50                EnableWindow@8
 *fill*         0x6d64de58        0x8 00
 .text          0x6d64de60        0x8 /opt/xmingw/lib/gcc-lib/i386-mingw32msvc/3.3.1/../../../../i386-mingw32msvc/lib/libuser32.a(dynvbs00053.o)
                0x6d64de60                CheckDlgButton@12
 *fill*         0x6d64de68        0x8 00
 .text          0x6d64de70        0x8 /opt/xmingw/lib/gcc-lib/i386-mingw32msvc/3.3.1/../../../../i386-mingw32msvc/lib/libuser32.a(dynvbs00383.o)
                0x6d64de70                IsDlgButtonChecked@8
 *fill*         0x6d64de78        0x8 00
 .text          0x6d64de80        0x8 /opt/xmingw/lib/gcc-lib/i386-mingw32msvc/3.3.1/../../../../i386-mingw32msvc/lib/libuser32.a(dynvbs00247.o)
                0x6d64de80                GetDC@4
 *fill*         0x6d64de88        0x8 00
 .text          0x6d64de90        0x8 /opt/xmingw/lib/gcc-lib/i386-mingw32msvc/3.3.1/../../../../i386-mingw32msvc/lib/libuser32.a(dynvbs00483.o)
                0x6d64de90                ReleaseDC@8
 *fill*         0x6d64de98        0x8 00
 .text          0x6d64dea0        0x8 /opt/xmingw/lib/gcc-lib/i386-mingw32msvc/3.3.1/../../../../i386-mingw32msvc/lib/libuser32.a(dynvbs00249.o)
                0x6d64dea0                GetDesktopWindow@0
 *fill*         0x6d64dea8        0x8 00
 .text          0x6d64deb0        0x8 /opt/xmingw/lib/gcc-lib/i386-mingw32msvc/3.3.1/../../../../i386-mingw32msvc/lib/libuser32.a(dynvbs00346.o)
                0x6d64deb0                GetWindowRect@8
 *fill*         0x6d64deb8        0x8 00
 .text          0x6d64dec0        0x8 /opt/xmingw/lib/gcc-lib/i386-mingw32msvc/3.3.1/../../../../i386-mingw32msvc/lib/libuser32.a(dynvbs00438.o)
                0x6d64dec0                MoveWindow@24
 *fill*         0x6d64dec8        0x8 00
 .text          0x6d64ded0        0x8 /opt/xmingw/lib/gcc-lib/i386-mingw32msvc/3.3.1/../../../../i386-mingw32msvc/lib/libkernel32.a(dmivbs00421.o)
                0x6d64ded0                GetTickCount@0
 *fill*         0x6d64ded8        0x8 00
 .text          0x6d64dee0        0x8 /opt/xmingw/lib/gcc-lib/i386-mingw32msvc/3.3.1/../../../../i386-mingw32msvc/lib/libkernel32.a(dmivbs00196.o)
                0x6d64dee0                FindResourceA@12
 *fill*         0x6d64dee8        0x8 00
 .text          0x6d64def0        0x8 /opt/xmingw/lib/gcc-lib/i386-mingw32msvc/3.3.1/../../../../i386-mingw32msvc/lib/libkernel32.a(dmivbs00527.o)
                0x6d64def0                LoadResource@8
 *fill*         0x6d64def8        0x8 00
 .text          0x6d64df00        0x8 /opt/xmingw/lib/gcc-lib/i386-mingw32msvc/3.3.1/../../../../i386-mingw32msvc/lib/libkernel32.a(dmivbs00541.o)
                0x6d64df00                LockResource@4
 *fill*         0x6d64df08        0x8 00
 .text          0x6d64df10        0x8 /opt/xmingw/lib/gcc-lib/i386-mingw32msvc/3.3.1/../../../../i386-mingw32msvc/lib/libkernel32.a(dmivbs00523.o)
                0x6d64df10                LoadLibraryExA@12
 *fill*         0x6d64df18        0x8 00
 .text          0x6d64df20        0x8 /opt/xmingw/lib/gcc-lib/i386-mingw32msvc/3.3.1/../../../../i386-mingw32msvc/lib/libkernel32.a(dmivbs00213.o)
                0x6d64df20                FreeLibrary@4
 *fill*         0x6d64df28        0x8 00
 .text          0x6d64df30        0x8 /opt/xmingw/lib/gcc-lib/i386-mingw32msvc/3.3.1/../../../../i386-mingw32msvc/lib/libkernel32.a(dmivbs00323.o)
                0x6d64df30                GetLastError@0
 *fill*         0x6d64df38        0x8 00
 .text          0x6d64df40        0x8 /opt/xmingw/lib/gcc-lib/i386-mingw32msvc/3.3.1/../../../../i386-mingw32msvc/lib/libkernel32.a(dmivbs00208.o)
                0x6d64df40                FormatMessageA@28
 *fill*         0x6d64df48        0x8 00
 .text          0x6d64df50        0x8 /opt/xmingw/lib/gcc-lib/i386-mingw32msvc/3.3.1/../../../../i386-mingw32msvc/lib/libkernel32.a(dmivbs00019.o)
                0x6d64df50                BeginUpdateResourceA@8
 *fill*         0x6d64df58        0x8 00
 .text          0x6d64df60        0x8 /opt/xmingw/lib/gcc-lib/i386-mingw32msvc/3.3.1/../../../../i386-mingw32msvc/lib/libkernel32.a(dmivbs00746.o)
                0x6d64df60                SizeofResource@8
 *fill*         0x6d64df68        0x8 00
 .text          0x6d64df70        0x8 /opt/xmingw/lib/gcc-lib/i386-mingw32msvc/3.3.1/../../../../i386-mingw32msvc/lib/libkernel32.a(dmivbs00776.o)
                0x6d64df70                UpdateResourceA@24
 *fill*         0x6d64df78        0x8 00
 .text          0x6d64df80        0x8 /opt/xmingw/lib/gcc-lib/i386-mingw32msvc/3.3.1/../../../../i386-mingw32msvc/lib/libkernel32.a(dmivbs00123.o)
                0x6d64df80                EndUpdateResourceA@8
 *fill*         0x6d64df88        0x8 00
 .text          0x6d64df90        0x8 /opt/xmingw/lib/gcc-lib/i386-mingw32msvc/3.3.1/../../../../i386-mingw32msvc/lib/libkernel32.a(dmivbs00333.o)
                0x6d64df90                GetModuleFileNameA@12
 *fill*         0x6d64df98        0x8 00
 .text          0x6d64dfa0        0x8 /opt/xmingw/lib/gcc-lib/i386-mingw32msvc/3.3.1/../../../../i386-mingw32msvc/lib/libkernel32.a(dmivbs00053.o)
                0x6d64dfa0                CopyFileA@12
 *fill*         0x6d64dfa8        0x8 00
 .text          0x6d64dfb0        0x8 /opt/xmingw/lib/gcc-lib/i386-mingw32msvc/3.3.1/../../../../i386-mingw32msvc/lib/libkernel32.a(dmivbs00038.o)
                0x6d64dfb0                CloseHandle@4
 *fill*         0x6d64dfb8        0x8 00
 .text          0x6d64dfc0        0x8 /opt/xmingw/lib/gcc-lib/i386-mingw32msvc/3.3.1/../../../../i386-mingw32msvc/lib/libkernel32.a(dmivbs00822.o)
                0x6d64dfc0                WriteFile@20
 *fill*         0x6d64dfc8        0x8 00
 .text          0x6d64dfd0        0x8 /opt/xmingw/lib/gcc-lib/i386-mingw32msvc/3.3.1/../../../../i386-mingw32msvc/lib/libkernel32.a(dmivbs00613.o)
                0x6d64dfd0                ReadFile@20
 *fill*         0x6d64dfd8        0x8 00
 .text          0x6d64dfe0        0x8 /opt/xmingw/lib/gcc-lib/i386-mingw32msvc/3.3.1/../../../../i386-mingw32msvc/lib/libkernel32.a(dmivbs00068.o)
                0x6d64dfe0                CreateFileA@28
 *fill*         0x6d64dfe8        0x8 00
 .text          0x6d64dff0        0x8 /opt/xmingw/lib/gcc-lib/i386-mingw32msvc/3.3.1/../../../../i386-mingw32msvc/lib/libkernel32.a(dmivbs00108.o)
                0x6d64dff0                DeleteFileA@4
 *fill*         0x6d64dff8        0x8 00
 .text          0x6d64e000        0x8 /opt/xmingw/lib/gcc-lib/i386-mingw32msvc/3.3.1/../../../../i386-mingw32msvc/lib/libkernel32.a(dmivbs00699.o)
                0x6d64e000                SetFilePointer@16
 *fill*         0x6d64e008        0x8 00
 .text          0x6d64e010        0x8 /opt/xmingw/lib/gcc-lib/i386-mingw32msvc/3.3.1/../../../../i386-mingw32msvc/lib/libkernel32.a(dmivbs00311.o)
                0x6d64e010                GetFileSize@8
 *fill*         0x6d64e018        0x8 00
 .text          0x6d64e020        0x8 /opt/xmingw/lib/gcc-lib/i386-mingw32msvc/3.3.1/../../../../i386-mingw32msvc/lib/libkernel32.a(dmivbs00690.o)
                0x6d64e020                SetEndOfFile@4
 *fill*         0x6d64e028        0x8 00
 .text          0x6d64e030        0x8 /opt/xmingw/lib/gcc-lib/i386-mingw32msvc/3.3.1/../../../../i386-mingw32msvc/lib/libkernel32.a(dmivbs00431.o)
                0x6d64e030                GetVersionExA@4
 *fill*         0x6d64e038        0x8 00
 .text          0x6d64e040        0x8 /opt/xmingw/lib/gcc-lib/i386-mingw32msvc/3.3.1/../../../../i386-mingw32msvc/lib/libkernel32.a(dmivbs00175.o)
                0x6d64e040                FindAtomA@4
 *fill*         0x6d64e048        0x8 00
 .text          0x6d64e050        0x8 /opt/xmingw/lib/gcc-lib/i386-mingw32msvc/3.3.1/../../../../i386-mingw32msvc/lib/libkernel32.a(dmivbs00001.o)
                0x6d64e050                AddAtomA@4
 *fill*         0x6d64e058        0x8 00
 .text          0x6d64e060        0x8 /opt/xmingw/lib/gcc-lib/i386-mingw32msvc/3.3.1/../../../../i386-mingw32msvc/lib/libkernel32.a(dmivbs00220.o)
                0x6d64e060                GetAtomNameA@12
 *fill*         0x6d64e068        0x8 00
 .text          0x6d64e070       0x10 /opt/xmingw/lib/gcc-lib/i386-mingw32msvc/3.3.1/crtend.o
 *(SORT(.text$*))
 *(.glue_7t)
 *(.glue_7)
                0x6d64e080                ___CTOR_LIST__ = .
                0x6d64e080                __CTOR_LIST__ = .
                0x6d64e080        0x4 LONG 0xffffffff
 *(SORT(.ctors.*))
 *(.ctors)
 .ctors         0x6d64e084        0x4 /opt/xmingw/lib/gcc-lib/i386-mingw32msvc/3.3.1/crtend.o
 *(.ctor)
                0x6d64e088        0x4 LONG 0x0
                0x6d64e08c                ___DTOR_LIST__ = .
                0x6d64e08c                __DTOR_LIST__ = .
                0x6d64e08c        0x4 LONG 0xffffffff
 *(SORT(.dtors.*))
 *(.dtors)
 *(.dtor)
                0x6d64e090        0x4 LONG 0x0
 *(.fini)
 *(.gcc_exc)
                0x6d64e094                PROVIDE (etext, .)
 *(.gcc_except_table)

.data           0x6d64f000     0x1c00
                0x6d64f000                __data_start__ = .
 *(.data)
 .data          0x6d64f000       0x10 main.o
                0x6d64f000                defaultexpr
 .data          0x6d64f010       0x80 ui.o
                0x6d64f010                doupdates
 .data          0x6d64f090       0x10 save.o
 .data          0x6d64f0a0       0x10 lexer.o
 .data          0x6d64f0b0      0x240 funcs.o
                0x6d64f0b0                predefs
 .data          0x6d64f2f0     0x1800 trigtab.o
                0x6d64f2f0                costab
                0x6d6502f0                tantab
 .data          0x6d650af0       0x20 ../common/tt/file_compat_win.o
 .data          0x6d650b10       0x10 /opt/xmingw/lib/gcc-lib/i386-mingw32msvc/3.3.1/../../../../i386-mingw32msvc/lib/libmingw32.a(gccmain.o)
 .data          0x6d650b20       0x10 /opt/xmingw/lib/gcc-lib/i386-mingw32msvc/3.3.1/libgcc.a(w32-shared-ptr.o)
 *(.data2)
 *(SORT(.data$*))
                0x6d650b30                __data_end__ = .
 *(.data_cygwin_nocopy)

.rdata          0x6d651000        0x0
 *(.rdata)
 *(SORT(.rdata$*))
 *(.eh_frame)
                0x6d651000                ___RUNTIME_PSEUDO_RELOC_LIST__ = .
                0x6d651000                __RUNTIME_PSEUDO_RELOC_LIST__ = .
 *(.rdata_runtime_pseudo_reloc)
                0x6d651000                ___RUNTIME_PSEUDO_RELOC_LIST_END__ = .
                0x6d651000                __RUNTIME_PSEUDO_RELOC_LIST_END__ = .

.pdata
 *(.pdata)

.bss            0x6d651000     0x2420
                0x6d651000                __bss_start__ = .
 *(.bss)
 .bss           0x6d651000       0x20 /opt/xmingw/lib/gcc-lib/i386-mingw32msvc/3.3.1/../../../../i386-mingw32msvc/lib/dllcrt2.o
 .bss           0x6d651020       0x10 main.o
 .bss           0x6d651030       0x50 ui_win.o
 .bss           0x6d651080       0x10 preview.o
                0x6d651080                preview_complete
 .bss           0x6d651090       0x90 lexer.o
                0x6d651090                yyin
                0x6d651094                yyout
 .bss           0x6d651120       0x10 funcs.o
                0x6d651120                zero_val
 .bss           0x6d651130       0x10 ../common/adobeplugin/dllmain.o
                0x6d651130                hDllInstance
 .bss           0x6d651140       0x10 /opt/xmingw/lib/gcc-lib/i386-mingw32msvc/3.3.1/../../../../i386-mingw32msvc/lib/libmingw32.a(gccmain.o)
 .bss           0x6d651150       0x10 /opt/xmingw/lib/gcc-lib/i386-mingw32msvc/3.3.1/../../../../i386-mingw32msvc/lib/libmingw32.a(pseudo-reloc-list.o)
 .bss           0x6d651160       0x20 /opt/xmingw/lib/gcc-lib/i386-mingw32msvc/3.3.1/libgcc.a(w32-shared-ptr.o)
 *(COMMON)
 COMMON         0x6d651180     0x14d0 main.o
                                  0x0 (size before relaxing)
                0x6d651180                map
                0x6d652180                errstart
                0x6d652190                cell
                0x6d652590                srcradused
                0x6d6525a0                gpb
                0x6d6525b0                errpos
                0x6d6525c0                err
                0x6d6525d0                gdata
                0x6d6525e0                expr
                0x6d6525f0                chunksize
                0x6d652600                nplanes
                0x6d652610                toprow
                0x6d652620                slider
                0x6d652640                tree
 COMMON         0x6d652650       0x10 ui_win.o
                                  0x0 (size before relaxing)
                0x6d652650                preview_hwnd
 COMMON         0x6d652660       0x20 ui.o
                                  0x0 (size before relaxing)
                0x6d652660                zoomfactor
                0x6d652670                fitzoom
 COMMON         0x6d652680       0x30 ui_build.o
                                  0x0 (size before relaxing)
                0x6d652680                ctls
                0x6d6526a0                maps
 COMMON         0x6d6526b0       0xb0 preview.o
                                  0x0 (size before relaxing)
                0x6d6526b0                preview_rect
                0x6d6526c0                preview_handle
                0x6d6526d0                preview_h
                0x6d6526e0                preview_w
                0x6d6526f0                preview_pmap
                0x6d652730                preview_scroll
                0x6d652740                preview_pmask
 COMMON         0x6d652760      0x1f0 parser.o
                                  0x0 (size before relaxing)
                0x6d652760                yychar
                0x6d652770                errstr
                0x6d652780                inarglist
                0x6d652910                arglistptr
                0x6d652920                parsetree
                0x6d652930                yynerrs
                0x6d652940                yylval
 COMMON         0x6d652950       0x40 lexer.o
                                  0x0 (size before relaxing)
                0x6d652950                tokstart
                0x6d652960                yyleng
                0x6d652970                tokpos
                0x6d652980                yytext
 COMMON         0x6d652990      0x820 node.o
                                  0x0 (size before relaxing)
                0x6d652990                varused
                0x6d652d90                var
                0x6d653190                node_list
                0x6d6531a0                allocs
 COMMON         0x6d6531b0      0x200 symtab.o
                                  0x0 (size before relaxing)
                0x6d6531b0                hash_table
 COMMON         0x6d6533b0       0x10 process.o
                                  0x0 (size before relaxing)
                0x6d6533b0                needinput
 COMMON         0x6d6533c0       0x10 make.o
                                  0x0 (size before relaxing)
                0x6d6533c0                event_id
 COMMON         0x6d6533d0       0x30 /opt/xmingw/lib/gcc-lib/i386-mingw32msvc/3.3.1/libgcc.a(w32-shared-ptr.o)
                                  0x0 (size before relaxing)
                0x6d6533d0                __w32_sharedptr_terminate
                0x6d6533e0                __w32_sharedptr
                0x6d6533f0                __w32_sharedptr_unexpected
 COMMON         0x6d653400       0x20 /opt/xmingw/lib/gcc-lib/i386-mingw32msvc/3.3.1/libgcc.a(_ctors.o)
                                  0x0 (size before relaxing)
                0x6d653420                __bss_end__ = .

.edata          0x6d654000      0x200
 *(.edata)
 .edata         0x6d654000       0x54 FilterFoundry.exp
 .edata         0x6d654054       0x4f dll stuff

/DISCARD/
 *(.debug$S)
 *(.debug$T)
 *(.debug$F)
 *(.drectve)

.idata          0x6d655000      0xc00
 SORT(*)(.idata$2)
 .idata$2       0x6d655000       0x14 /opt/xmingw/lib/gcc-lib/i386-mingw32msvc/3.3.1/../../../../i386-mingw32msvc/lib/libcomdlg32.a(dkfvbh.o)
                0x6d655000                _head_libcomdlg32_a
 .idata$2       0x6d655014       0x14 /opt/xmingw/lib/gcc-lib/i386-mingw32msvc/3.3.1/../../../../i386-mingw32msvc/lib/libgdi32.a(dihvbh.o)
                0x6d655014                _head_libgdi32_a
 .idata$2       0x6d655028       0x14 /opt/xmingw/lib/gcc-lib/i386-mingw32msvc/3.3.1/../../../../i386-mingw32msvc/lib/libkernel32.a(dmivbh.o)
                0x6d655028                _head_libkernel32_a
 .idata$2       0x6d65503c       0x14 /opt/xmingw/lib/gcc-lib/i386-mingw32msvc/3.3.1/../../../../i386-mingw32msvc/lib/libmsvcrt.a(dznch.o)
                0x6d65503c                _head_libmsvcrt_a
 .idata$2       0x6d655050       0x14 /opt/xmingw/lib/gcc-lib/i386-mingw32msvc/3.3.1/../../../../i386-mingw32msvc/lib/libuser32.a(dynvbh.o)
                0x6d655050                _head_libuser32_a
 SORT(*)(.idata$3)
                0x6d655064        0x4 LONG 0x0
                0x6d655068        0x4 LONG 0x0
                0x6d65506c        0x4 LONG 0x0
                0x6d655070        0x4 LONG 0x0
                0x6d655074        0x4 LONG 0x0
 SORT(*)(.idata$4)
 .idata$4       0x6d655078        0x4 /opt/xmingw/lib/gcc-lib/i386-mingw32msvc/3.3.1/../../../../i386-mingw32msvc/lib/libcomdlg32.a(dkfvbh.o)
 .idata$4       0x6d65507c        0x4 /opt/xmingw/lib/gcc-lib/i386-mingw32msvc/3.3.1/../../../../i386-mingw32msvc/lib/libcomdlg32.a(dkfvbs00009.o)
 .idata$4       0x6d655080        0x4 /opt/xmingw/lib/gcc-lib/i386-mingw32msvc/3.3.1/../../../../i386-mingw32msvc/lib/libcomdlg32.a(dkfvbs00011.o)
 .idata$4       0x6d655084        0x4 /opt/xmingw/lib/gcc-lib/i386-mingw32msvc/3.3.1/../../../../i386-mingw32msvc/lib/libcomdlg32.a(dkfvbt.o)
 .idata$4       0x6d655088        0x4 /opt/xmingw/lib/gcc-lib/i386-mingw32msvc/3.3.1/../../../../i386-mingw32msvc/lib/libgdi32.a(dihvbh.o)
 .idata$4       0x6d65508c        0x4 /opt/xmingw/lib/gcc-lib/i386-mingw32msvc/3.3.1/../../../../i386-mingw32msvc/lib/libgdi32.a(dihvbs00038.o)
 .idata$4       0x6d655090        0x4 /opt/xmingw/lib/gcc-lib/i386-mingw32msvc/3.3.1/../../../../i386-mingw32msvc/lib/libgdi32.a(dihvbs00072.o)
 .idata$4       0x6d655094        0x4 /opt/xmingw/lib/gcc-lib/i386-mingw32msvc/3.3.1/../../../../i386-mingw32msvc/lib/libgdi32.a(dihvbs00195.o)
 .idata$4       0x6d655098        0x4 /opt/xmingw/lib/gcc-lib/i386-mingw32msvc/3.3.1/../../../../i386-mingw32msvc/lib/libgdi32.a(dihvbt.o)
 .idata$4       0x6d65509c        0x4 /opt/xmingw/lib/gcc-lib/i386-mingw32msvc/3.3.1/../../../../i386-mingw32msvc/lib/libkernel32.a(dmivbh.o)
 .idata$4       0x6d6550a0        0x4 /opt/xmingw/lib/gcc-lib/i386-mingw32msvc/3.3.1/../../../../i386-mingw32msvc/lib/libkernel32.a(dmivbs00001.o)
 .idata$4       0x6d6550a4        0x4 /opt/xmingw/lib/gcc-lib/i386-mingw32msvc/3.3.1/../../../../i386-mingw32msvc/lib/libkernel32.a(dmivbs00019.o)
 .idata$4       0x6d6550a8        0x4 /opt/xmingw/lib/gcc-lib/i386-mingw32msvc/3.3.1/../../../../i386-mingw32msvc/lib/libkernel32.a(dmivbs00038.o)
 .idata$4       0x6d6550ac        0x4 /opt/xmingw/lib/gcc-lib/i386-mingw32msvc/3.3.1/../../../../i386-mingw32msvc/lib/libkernel32.a(dmivbs00053.o)
 .idata$4       0x6d6550b0        0x4 /opt/xmingw/lib/gcc-lib/i386-mingw32msvc/3.3.1/../../../../i386-mingw32msvc/lib/libkernel32.a(dmivbs00068.o)
 .idata$4       0x6d6550b4        0x4 /opt/xmingw/lib/gcc-lib/i386-mingw32msvc/3.3.1/../../../../i386-mingw32msvc/lib/libkernel32.a(dmivbs00108.o)
 .idata$4       0x6d6550b8        0x4 /opt/xmingw/lib/gcc-lib/i386-mingw32msvc/3.3.1/../../../../i386-mingw32msvc/lib/libkernel32.a(dmivbs00123.o)
 .idata$4       0x6d6550bc        0x4 /opt/xmingw/lib/gcc-lib/i386-mingw32msvc/3.3.1/../../../../i386-mingw32msvc/lib/libkernel32.a(dmivbs00175.o)
 .idata$4       0x6d6550c0        0x4 /opt/xmingw/lib/gcc-lib/i386-mingw32msvc/3.3.1/../../../../i386-mingw32msvc/lib/libkernel32.a(dmivbs00196.o)
 .idata$4       0x6d6550c4        0x4 /opt/xmingw/lib/gcc-lib/i386-mingw32msvc/3.3.1/../../../../i386-mingw32msvc/lib/libkernel32.a(dmivbs00208.o)
 .idata$4       0x6d6550c8        0x4 /opt/xmingw/lib/gcc-lib/i386-mingw32msvc/3.3.1/../../../../i386-mingw32msvc/lib/libkernel32.a(dmivbs00213.o)
 .idata$4       0x6d6550cc        0x4 /opt/xmingw/lib/gcc-lib/i386-mingw32msvc/3.3.1/../../../../i386-mingw32msvc/lib/libkernel32.a(dmivbs00220.o)
 .idata$4       0x6d6550d0        0x4 /opt/xmingw/lib/gcc-lib/i386-mingw32msvc/3.3.1/../../../../i386-mingw32msvc/lib/libkernel32.a(dmivbs00311.o)
 .idata$4       0x6d6550d4        0x4 /opt/xmingw/lib/gcc-lib/i386-mingw32msvc/3.3.1/../../../../i386-mingw32msvc/lib/libkernel32.a(dmivbs00323.o)
 .idata$4       0x6d6550d8        0x4 /opt/xmingw/lib/gcc-lib/i386-mingw32msvc/3.3.1/../../../../i386-mingw32msvc/lib/libkernel32.a(dmivbs00333.o)
 .idata$4       0x6d6550dc        0x4 /opt/xmingw/lib/gcc-lib/i386-mingw32msvc/3.3.1/../../../../i386-mingw32msvc/lib/libkernel32.a(dmivbs00421.o)
 .idata$4       0x6d6550e0        0x4 /opt/xmingw/lib/gcc-lib/i386-mingw32msvc/3.3.1/../../../../i386-mingw32msvc/lib/libkernel32.a(dmivbs00431.o)
 .idata$4       0x6d6550e4        0x4 /opt/xmingw/lib/gcc-lib/i386-mingw32msvc/3.3.1/../../../../i386-mingw32msvc/lib/libkernel32.a(dmivbs00523.o)
 .idata$4       0x6d6550e8        0x4 /opt/xmingw/lib/gcc-lib/i386-mingw32msvc/3.3.1/../../../../i386-mingw32msvc/lib/libkernel32.a(dmivbs00527.o)
 .idata$4       0x6d6550ec        0x4 /opt/xmingw/lib/gcc-lib/i386-mingw32msvc/3.3.1/../../../../i386-mingw32msvc/lib/libkernel32.a(dmivbs00541.o)
 .idata$4       0x6d6550f0        0x4 /opt/xmingw/lib/gcc-lib/i386-mingw32msvc/3.3.1/../../../../i386-mingw32msvc/lib/libkernel32.a(dmivbs00613.o)
 .idata$4       0x6d6550f4        0x4 /opt/xmingw/lib/gcc-lib/i386-mingw32msvc/3.3.1/../../../../i386-mingw32msvc/lib/libkernel32.a(dmivbs00690.o)
 .idata$4       0x6d6550f8        0x4 /opt/xmingw/lib/gcc-lib/i386-mingw32msvc/3.3.1/../../../../i386-mingw32msvc/lib/libkernel32.a(dmivbs00699.o)
 .idata$4       0x6d6550fc        0x4 /opt/xmingw/lib/gcc-lib/i386-mingw32msvc/3.3.1/../../../../i386-mingw32msvc/lib/libkernel32.a(dmivbs00746.o)
 .idata$4       0x6d655100        0x4 /opt/xmingw/lib/gcc-lib/i386-mingw32msvc/3.3.1/../../../../i386-mingw32msvc/lib/libkernel32.a(dmivbs00776.o)
 .idata$4       0x6d655104        0x4 /opt/xmingw/lib/gcc-lib/i386-mingw32msvc/3.3.1/../../../../i386-mingw32msvc/lib/libkernel32.a(dmivbs00822.o)
 .idata$4       0x6d655108        0x4 /opt/xmingw/lib/gcc-lib/i386-mingw32msvc/3.3.1/../../../../i386-mingw32msvc/lib/libkernel32.a(dmivbt.o)
 .idata$4       0x6d65510c        0x4 /opt/xmingw/lib/gcc-lib/i386-mingw32msvc/3.3.1/../../../../i386-mingw32msvc/lib/libmsvcrt.a(dznch.o)
 .idata$4       0x6d655110        0x4 /opt/xmingw/lib/gcc-lib/i386-mingw32msvc/3.3.1/../../../../i386-mingw32msvc/lib/libmsvcrt.a(dzncs00036.o)
 .idata$4       0x6d655114        0x4 /opt/xmingw/lib/gcc-lib/i386-mingw32msvc/3.3.1/../../../../i386-mingw32msvc/lib/libmsvcrt.a(dzncs00047.o)
 .idata$4       0x6d655118        0x4 /opt/xmingw/lib/gcc-lib/i386-mingw32msvc/3.3.1/../../../../i386-mingw32msvc/lib/libmsvcrt.a(dzncs00147.o)
 .idata$4       0x6d65511c        0x4 /opt/xmingw/lib/gcc-lib/i386-mingw32msvc/3.3.1/../../../../i386-mingw32msvc/lib/libmsvcrt.a(dzncs00176.o)
 .idata$4       0x6d655120        0x4 /opt/xmingw/lib/gcc-lib/i386-mingw32msvc/3.3.1/../../../../i386-mingw32msvc/lib/libmsvcrt.a(dzncs00222.o)
 .idata$4       0x6d655124        0x4 /opt/xmingw/lib/gcc-lib/i386-mingw32msvc/3.3.1/../../../../i386-mingw32msvc/lib/libmsvcrt.a(dzncs00224.o)
 .idata$4       0x6d655128        0x4 /opt/xmingw/lib/gcc-lib/i386-mingw32msvc/3.3.1/../../../../i386-mingw32msvc/lib/libmsvcrt.a(dzncs00344.o)
 .idata$4       0x6d65512c        0x4 /opt/xmingw/lib/gcc-lib/i386-mingw32msvc/3.3.1/../../../../i386-mingw32msvc/lib/libmsvcrt.a(dzncs00395.o)
 .idata$4       0x6d655130        0x4 /opt/xmingw/lib/gcc-lib/i386-mingw32msvc/3.3.1/../../../../i386-mingw32msvc/lib/libmsvcrt.a(dzncs00510.o)
 .idata$4       0x6d655134        0x4 /opt/xmingw/lib/gcc-lib/i386-mingw32msvc/3.3.1/../../../../i386-mingw32msvc/lib/libmsvcrt.a(dzncs00516.o)
 .idata$4       0x6d655138        0x4 /opt/xmingw/lib/gcc-lib/i386-mingw32msvc/3.3.1/../../../../i386-mingw32msvc/lib/libmsvcrt.a(dzncs00519.o)
 .idata$4       0x6d65513c        0x4 /opt/xmingw/lib/gcc-lib/i386-mingw32msvc/3.3.1/../../../../i386-mingw32msvc/lib/libmsvcrt.a(dzncs00526.o)
 .idata$4       0x6d655140        0x4 /opt/xmingw/lib/gcc-lib/i386-mingw32msvc/3.3.1/../../../../i386-mingw32msvc/lib/libmsvcrt.a(dzncs00531.o)
 .idata$4       0x6d655144        0x4 /opt/xmingw/lib/gcc-lib/i386-mingw32msvc/3.3.1/../../../../i386-mingw32msvc/lib/libmsvcrt.a(dzncs00537.o)
 .idata$4       0x6d655148        0x4 /opt/xmingw/lib/gcc-lib/i386-mingw32msvc/3.3.1/../../../../i386-mingw32msvc/lib/libmsvcrt.a(dzncs00543.o)
 .idata$4       0x6d65514c        0x4 /opt/xmingw/lib/gcc-lib/i386-mingw32msvc/3.3.1/../../../../i386-mingw32msvc/lib/libmsvcrt.a(dzncs00546.o)
 .idata$4       0x6d655150        0x4 /opt/xmingw/lib/gcc-lib/i386-mingw32msvc/3.3.1/../../../../i386-mingw32msvc/lib/libmsvcrt.a(dzncs00552.o)
 .idata$4       0x6d655154        0x4 /opt/xmingw/lib/gcc-lib/i386-mingw32msvc/3.3.1/../../../../i386-mingw32msvc/lib/libmsvcrt.a(dzncs00554.o)
 .idata$4       0x6d655158        0x4 /opt/xmingw/lib/gcc-lib/i386-mingw32msvc/3.3.1/../../../../i386-mingw32msvc/lib/libmsvcrt.a(dzncs00596.o)
 .idata$4       0x6d65515c        0x4 /opt/xmingw/lib/gcc-lib/i386-mingw32msvc/3.3.1/../../../../i386-mingw32msvc/lib/libmsvcrt.a(dzncs00603.o)
 .idata$4       0x6d655160        0x4 /opt/xmingw/lib/gcc-lib/i386-mingw32msvc/3.3.1/../../../../i386-mingw32msvc/lib/libmsvcrt.a(dzncs00609.o)
 .idata$4       0x6d655164        0x4 /opt/xmingw/lib/gcc-lib/i386-mingw32msvc/3.3.1/../../../../i386-mingw32msvc/lib/libmsvcrt.a(dzncs00610.o)
 .idata$4       0x6d655168        0x4 /opt/xmingw/lib/gcc-lib/i386-mingw32msvc/3.3.1/../../../../i386-mingw32msvc/lib/libmsvcrt.a(dzncs00611.o)
 .idata$4       0x6d65516c        0x4 /opt/xmingw/lib/gcc-lib/i386-mingw32msvc/3.3.1/../../../../i386-mingw32msvc/lib/libmsvcrt.a(dzncs00616.o)
 .idata$4       0x6d655170        0x4 /opt/xmingw/lib/gcc-lib/i386-mingw32msvc/3.3.1/../../../../i386-mingw32msvc/lib/libmsvcrt.a(dzncs00619.o)
 .idata$4       0x6d655174        0x4 /opt/xmingw/lib/gcc-lib/i386-mingw32msvc/3.3.1/../../../../i386-mingw32msvc/lib/libmsvcrt.a(dzncs00624.o)
 .idata$4       0x6d655178        0x4 /opt/xmingw/lib/gcc-lib/i386-mingw32msvc/3.3.1/../../../../i386-mingw32msvc/lib/libmsvcrt.a(dzncs00625.o)
 .idata$4       0x6d65517c        0x4 /opt/xmingw/lib/gcc-lib/i386-mingw32msvc/3.3.1/../../../../i386-mingw32msvc/lib/libmsvcrt.a(dzncs00634.o)
 .idata$4       0x6d655180        0x4 /opt/xmingw/lib/gcc-lib/i386-mingw32msvc/3.3.1/../../../../i386-mingw32msvc/lib/libmsvcrt.a(dzncs00636.o)
 .idata$4       0x6d655184        0x4 /opt/xmingw/lib/gcc-lib/i386-mingw32msvc/3.3.1/../../../../i386-mingw32msvc/lib/libmsvcrt.a(dzncs00638.o)
 .idata$4       0x6d655188        0x4 /opt/xmingw/lib/gcc-lib/i386-mingw32msvc/3.3.1/../../../../i386-mingw32msvc/lib/libmsvcrt.a(dzncs00640.o)
 .idata$4       0x6d65518c        0x4 /opt/xmingw/lib/gcc-lib/i386-mingw32msvc/3.3.1/../../../../i386-mingw32msvc/lib/libmsvcrt.a(dzncs00642.o)
 .idata$4       0x6d655190        0x4 /opt/xmingw/lib/gcc-lib/i386-mingw32msvc/3.3.1/../../../../i386-mingw32msvc/lib/libmsvcrt.a(dzncs00644.o)
 .idata$4       0x6d655194        0x4 /opt/xmingw/lib/gcc-lib/i386-mingw32msvc/3.3.1/../../../../i386-mingw32msvc/lib/libmsvcrt.a(dzncs00648.o)
 .idata$4       0x6d655198        0x4 /opt/xmingw/lib/gcc-lib/i386-mingw32msvc/3.3.1/../../../../i386-mingw32msvc/lib/libmsvcrt.a(dzncs00670.o)
 .idata$4       0x6d65519c        0x4 /opt/xmingw/lib/gcc-lib/i386-mingw32msvc/3.3.1/../../../../i386-mingw32msvc/lib/libmsvcrt.a(dznct.o)
 .idata$4       0x6d6551a0        0x4 /opt/xmingw/lib/gcc-lib/i386-mingw32msvc/3.3.1/../../../../i386-mingw32msvc/lib/libuser32.a(dynvbh.o)
 .idata$4       0x6d6551a4        0x4 /opt/xmingw/lib/gcc-lib/i386-mingw32msvc/3.3.1/../../../../i386-mingw32msvc/lib/libuser32.a(dynvbs00053.o)
 .idata$4       0x6d6551a8        0x4 /opt/xmingw/lib/gcc-lib/i386-mingw32msvc/3.3.1/../../../../i386-mingw32msvc/lib/libuser32.a(dynvbs00146.o)
 .idata$4       0x6d6551ac        0x4 /opt/xmingw/lib/gcc-lib/i386-mingw32msvc/3.3.1/../../../../i386-mingw32msvc/lib/libuser32.a(dynvbs00179.o)
 .idata$4       0x6d6551b0        0x4 /opt/xmingw/lib/gcc-lib/i386-mingw32msvc/3.3.1/../../../../i386-mingw32msvc/lib/libuser32.a(dynvbs00181.o)
 .idata$4       0x6d6551b4        0x4 /opt/xmingw/lib/gcc-lib/i386-mingw32msvc/3.3.1/../../../../i386-mingw32msvc/lib/libuser32.a(dynvbs00235.o)
 .idata$4       0x6d6551b8        0x4 /opt/xmingw/lib/gcc-lib/i386-mingw32msvc/3.3.1/../../../../i386-mingw32msvc/lib/libuser32.a(dynvbs00246.o)
 .idata$4       0x6d6551bc        0x4 /opt/xmingw/lib/gcc-lib/i386-mingw32msvc/3.3.1/../../../../i386-mingw32msvc/lib/libuser32.a(dynvbs00247.o)
 .idata$4       0x6d6551c0        0x4 /opt/xmingw/lib/gcc-lib/i386-mingw32msvc/3.3.1/../../../../i386-mingw32msvc/lib/libuser32.a(dynvbs00249.o)
 .idata$4       0x6d6551c4        0x4 /opt/xmingw/lib/gcc-lib/i386-mingw32msvc/3.3.1/../../../../i386-mingw32msvc/lib/libuser32.a(dynvbs00251.o)
 .idata$4       0x6d6551c8        0x4 /opt/xmingw/lib/gcc-lib/i386-mingw32msvc/3.3.1/../../../../i386-mingw32msvc/lib/libuser32.a(dynvbs00252.o)
 .idata$4       0x6d6551cc        0x4 /opt/xmingw/lib/gcc-lib/i386-mingw32msvc/3.3.1/../../../../i386-mingw32msvc/lib/libuser32.a(dynvbs00253.o)
 .idata$4       0x6d6551d0        0x4 /opt/xmingw/lib/gcc-lib/i386-mingw32msvc/3.3.1/../../../../i386-mingw32msvc/lib/libuser32.a(dynvbs00254.o)
 .idata$4       0x6d6551d4        0x4 /opt/xmingw/lib/gcc-lib/i386-mingw32msvc/3.3.1/../../../../i386-mingw32msvc/lib/libuser32.a(dynvbs00346.o)
 .idata$4       0x6d6551d8        0x4 /opt/xmingw/lib/gcc-lib/i386-mingw32msvc/3.3.1/../../../../i386-mingw32msvc/lib/libuser32.a(dynvbs00383.o)
 .idata$4       0x6d6551dc        0x4 /opt/xmingw/lib/gcc-lib/i386-mingw32msvc/3.3.1/../../../../i386-mingw32msvc/lib/libuser32.a(dynvbs00429.o)
 .idata$4       0x6d6551e0        0x4 /opt/xmingw/lib/gcc-lib/i386-mingw32msvc/3.3.1/../../../../i386-mingw32msvc/lib/libuser32.a(dynvbs00430.o)
 .idata$4       0x6d6551e4        0x4 /opt/xmingw/lib/gcc-lib/i386-mingw32msvc/3.3.1/../../../../i386-mingw32msvc/lib/libuser32.a(dynvbs00438.o)
 .idata$4       0x6d6551e8        0x4 /opt/xmingw/lib/gcc-lib/i386-mingw32msvc/3.3.1/../../../../i386-mingw32msvc/lib/libuser32.a(dynvbs00482.o)
 .idata$4       0x6d6551ec        0x4 /opt/xmingw/lib/gcc-lib/i386-mingw32msvc/3.3.1/../../../../i386-mingw32msvc/lib/libuser32.a(dynvbs00483.o)
 .idata$4       0x6d6551f0        0x4 /opt/xmingw/lib/gcc-lib/i386-mingw32msvc/3.3.1/../../../../i386-mingw32msvc/lib/libuser32.a(dynvbs00494.o)
 .idata$4       0x6d6551f4        0x4 /opt/xmingw/lib/gcc-lib/i386-mingw32msvc/3.3.1/../../../../i386-mingw32msvc/lib/libuser32.a(dynvbs00506.o)
 .idata$4       0x6d6551f8        0x4 /opt/xmingw/lib/gcc-lib/i386-mingw32msvc/3.3.1/../../../../i386-mingw32msvc/lib/libuser32.a(dynvbs00518.o)
 .idata$4       0x6d6551fc        0x4 /opt/xmingw/lib/gcc-lib/i386-mingw32msvc/3.3.1/../../../../i386-mingw32msvc/lib/libuser32.a(dynvbs00519.o)
 .idata$4       0x6d655200        0x4 /opt/xmingw/lib/gcc-lib/i386-mingw32msvc/3.3.1/../../../../i386-mingw32msvc/lib/libuser32.a(dynvbs00522.o)
 .idata$4       0x6d655204        0x4 /opt/xmingw/lib/gcc-lib/i386-mingw32msvc/3.3.1/../../../../i386-mingw32msvc/lib/libuser32.a(dynvbs00574.o)
 .idata$4       0x6d655208        0x4 /opt/xmingw/lib/gcc-lib/i386-mingw32msvc/3.3.1/../../../../i386-mingw32msvc/lib/libuser32.a(dynvbt.o)
 SORT(*)(.idata$5)
 .idata$5       0x6d65520c        0x4 /opt/xmingw/lib/gcc-lib/i386-mingw32msvc/3.3.1/../../../../i386-mingw32msvc/lib/libcomdlg32.a(dkfvbh.o)
 .idata$5       0x6d655210        0x4 /opt/xmingw/lib/gcc-lib/i386-mingw32msvc/3.3.1/../../../../i386-mingw32msvc/lib/libcomdlg32.a(dkfvbs00009.o)
                0x6d655210                _imp__GetOpenFileNameA@4
 .idata$5       0x6d655214        0x4 /opt/xmingw/lib/gcc-lib/i386-mingw32msvc/3.3.1/../../../../i386-mingw32msvc/lib/libcomdlg32.a(dkfvbs00011.o)
                0x6d655214                _imp__GetSaveFileNameA@4
 .idata$5       0x6d655218        0x4 /opt/xmingw/lib/gcc-lib/i386-mingw32msvc/3.3.1/../../../../i386-mingw32msvc/lib/libcomdlg32.a(dkfvbt.o)
 .idata$5       0x6d65521c        0x4 /opt/xmingw/lib/gcc-lib/i386-mingw32msvc/3.3.1/../../../../i386-mingw32msvc/lib/libgdi32.a(dihvbh.o)
 .idata$5       0x6d655220        0x4 /opt/xmingw/lib/gcc-lib/i386-mingw32msvc/3.3.1/../../../../i386-mingw32msvc/lib/libgdi32.a(dihvbs00038.o)
                0x6d655220                _imp__CreateDIBSection@24
 .idata$5       0x6d655224        0x4 /opt/xmingw/lib/gcc-lib/i386-mingw32msvc/3.3.1/../../../../i386-mingw32msvc/lib/libgdi32.a(dihvbs00072.o)
                0x6d655224                _imp__DeleteObject@4
 .idata$5       0x6d655228        0x4 /opt/xmingw/lib/gcc-lib/i386-mingw32msvc/3.3.1/../../../../i386-mingw32msvc/lib/libgdi32.a(dihvbs00195.o)
                0x6d655228                _imp__GetStockObject@4
 .idata$5       0x6d65522c        0x4 /opt/xmingw/lib/gcc-lib/i386-mingw32msvc/3.3.1/../../../../i386-mingw32msvc/lib/libgdi32.a(dihvbt.o)
 .idata$5       0x6d655230        0x4 /opt/xmingw/lib/gcc-lib/i386-mingw32msvc/3.3.1/../../../../i386-mingw32msvc/lib/libkernel32.a(dmivbh.o)
 .idata$5       0x6d655234        0x4 /opt/xmingw/lib/gcc-lib/i386-mingw32msvc/3.3.1/../../../../i386-mingw32msvc/lib/libkernel32.a(dmivbs00001.o)
                0x6d655234                _imp__AddAtomA@4
 .idata$5       0x6d655238        0x4 /opt/xmingw/lib/gcc-lib/i386-mingw32msvc/3.3.1/../../../../i386-mingw32msvc/lib/libkernel32.a(dmivbs00019.o)
                0x6d655238                _imp__BeginUpdateResourceA@8
 .idata$5       0x6d65523c        0x4 /opt/xmingw/lib/gcc-lib/i386-mingw32msvc/3.3.1/../../../../i386-mingw32msvc/lib/libkernel32.a(dmivbs00038.o)
                0x6d65523c                _imp__CloseHandle@4
 .idata$5       0x6d655240        0x4 /opt/xmingw/lib/gcc-lib/i386-mingw32msvc/3.3.1/../../../../i386-mingw32msvc/lib/libkernel32.a(dmivbs00053.o)
                0x6d655240                _imp__CopyFileA@12
 .idata$5       0x6d655244        0x4 /opt/xmingw/lib/gcc-lib/i386-mingw32msvc/3.3.1/../../../../i386-mingw32msvc/lib/libkernel32.a(dmivbs00068.o)
                0x6d655244                _imp__CreateFileA@28
 .idata$5       0x6d655248        0x4 /opt/xmingw/lib/gcc-lib/i386-mingw32msvc/3.3.1/../../../../i386-mingw32msvc/lib/libkernel32.a(dmivbs00108.o)
                0x6d655248                _imp__DeleteFileA@4
 .idata$5       0x6d65524c        0x4 /opt/xmingw/lib/gcc-lib/i386-mingw32msvc/3.3.1/../../../../i386-mingw32msvc/lib/libkernel32.a(dmivbs00123.o)
                0x6d65524c                _imp__EndUpdateResourceA@8
 .idata$5       0x6d655250        0x4 /opt/xmingw/lib/gcc-lib/i386-mingw32msvc/3.3.1/../../../../i386-mingw32msvc/lib/libkernel32.a(dmivbs00175.o)
                0x6d655250                _imp__FindAtomA@4
 .idata$5       0x6d655254        0x4 /opt/xmingw/lib/gcc-lib/i386-mingw32msvc/3.3.1/../../../../i386-mingw32msvc/lib/libkernel32.a(dmivbs00196.o)
                0x6d655254                _imp__FindResourceA@12
 .idata$5       0x6d655258        0x4 /opt/xmingw/lib/gcc-lib/i386-mingw32msvc/3.3.1/../../../../i386-mingw32msvc/lib/libkernel32.a(dmivbs00208.o)
                0x6d655258                _imp__FormatMessageA@28
 .idata$5       0x6d65525c        0x4 /opt/xmingw/lib/gcc-lib/i386-mingw32msvc/3.3.1/../../../../i386-mingw32msvc/lib/libkernel32.a(dmivbs00213.o)
                0x6d65525c                _imp__FreeLibrary@4
 .idata$5       0x6d655260        0x4 /opt/xmingw/lib/gcc-lib/i386-mingw32msvc/3.3.1/../../../../i386-mingw32msvc/lib/libkernel32.a(dmivbs00220.o)
                0x6d655260                _imp__GetAtomNameA@12
 .idata$5       0x6d655264        0x4 /opt/xmingw/lib/gcc-lib/i386-mingw32msvc/3.3.1/../../../../i386-mingw32msvc/lib/libkernel32.a(dmivbs00311.o)
                0x6d655264                _imp__GetFileSize@8
 .idata$5       0x6d655268        0x4 /opt/xmingw/lib/gcc-lib/i386-mingw32msvc/3.3.1/../../../../i386-mingw32msvc/lib/libkernel32.a(dmivbs00323.o)
                0x6d655268                _imp__GetLastError@0
 .idata$5       0x6d65526c        0x4 /opt/xmingw/lib/gcc-lib/i386-mingw32msvc/3.3.1/../../../../i386-mingw32msvc/lib/libkernel32.a(dmivbs00333.o)
                0x6d65526c                _imp__GetModuleFileNameA@12
 .idata$5       0x6d655270        0x4 /opt/xmingw/lib/gcc-lib/i386-mingw32msvc/3.3.1/../../../../i386-mingw32msvc/lib/libkernel32.a(dmivbs00421.o)
                0x6d655270                _imp__GetTickCount@0
 .idata$5       0x6d655274        0x4 /opt/xmingw/lib/gcc-lib/i386-mingw32msvc/3.3.1/../../../../i386-mingw32msvc/lib/libkernel32.a(dmivbs00431.o)
                0x6d655274                _imp__GetVersionExA@4
 .idata$5       0x6d655278        0x4 /opt/xmingw/lib/gcc-lib/i386-mingw32msvc/3.3.1/../../../../i386-mingw32msvc/lib/libkernel32.a(dmivbs00523.o)
                0x6d655278                _imp__LoadLibraryExA@12
 .idata$5       0x6d65527c        0x4 /opt/xmingw/lib/gcc-lib/i386-mingw32msvc/3.3.1/../../../../i386-mingw32msvc/lib/libkernel32.a(dmivbs00527.o)
                0x6d65527c                _imp__LoadResource@8
 .idata$5       0x6d655280        0x4 /opt/xmingw/lib/gcc-lib/i386-mingw32msvc/3.3.1/../../../../i386-mingw32msvc/lib/libkernel32.a(dmivbs00541.o)
                0x6d655280                _imp__LockResource@4
 .idata$5       0x6d655284        0x4 /opt/xmingw/lib/gcc-lib/i386-mingw32msvc/3.3.1/../../../../i386-mingw32msvc/lib/libkernel32.a(dmivbs00613.o)
                0x6d655284                _imp__ReadFile@20
 .idata$5       0x6d655288        0x4 /opt/xmingw/lib/gcc-lib/i386-mingw32msvc/3.3.1/../../../../i386-mingw32msvc/lib/libkernel32.a(dmivbs00690.o)
                0x6d655288                _imp__SetEndOfFile@4
 .idata$5       0x6d65528c        0x4 /opt/xmingw/lib/gcc-lib/i386-mingw32msvc/3.3.1/../../../../i386-mingw32msvc/lib/libkernel32.a(dmivbs00699.o)
                0x6d65528c                _imp__SetFilePointer@16
 .idata$5       0x6d655290        0x4 /opt/xmingw/lib/gcc-lib/i386-mingw32msvc/3.3.1/../../../../i386-mingw32msvc/lib/libkernel32.a(dmivbs00746.o)
                0x6d655290                _imp__SizeofResource@8
 .idata$5       0x6d655294        0x4 /opt/xmingw/lib/gcc-lib/i386-mingw32msvc/3.3.1/../../../../i386-mingw32msvc/lib/libkernel32.a(dmivbs00776.o)
                0x6d655294                _imp__UpdateResourceA@24
 .idata$5       0x6d655298        0x4 /opt/xmingw/lib/gcc-lib/i386-mingw32msvc/3.3.1/../../../../i386-mingw32msvc/lib/libkernel32.a(dmivbs00822.o)
                0x6d655298                _imp__WriteFile@20
 .idata$5       0x6d65529c        0x4 /opt/xmingw/lib/gcc-lib/i386-mingw32msvc/3.3.1/../../../../i386-mingw32msvc/lib/libkernel32.a(dmivbt.o)
 .idata$5       0x6d6552a0        0x4 /opt/xmingw/lib/gcc-lib/i386-mingw32msvc/3.3.1/../../../../i386-mingw32msvc/lib/libmsvcrt.a(dznch.o)
 .idata$5       0x6d6552a4        0x4 /opt/xmingw/lib/gcc-lib/i386-mingw32msvc/3.3.1/../../../../i386-mingw32msvc/lib/libmsvcrt.a(dzncs00036.o)
                0x6d6552a4                _imp____dllonexit
 .idata$5       0x6d6552a8        0x4 /opt/xmingw/lib/gcc-lib/i386-mingw32msvc/3.3.1/../../../../i386-mingw32msvc/lib/libmsvcrt.a(dzncs00047.o)
                0x6d6552a8                _imp____mb_cur_max
 .idata$5       0x6d6552ac        0x4 /opt/xmingw/lib/gcc-lib/i386-mingw32msvc/3.3.1/../../../../i386-mingw32msvc/lib/libmsvcrt.a(dzncs00147.o)
                0x6d6552ac                _imp___errno
 .idata$5       0x6d6552b0        0x4 /opt/xmingw/lib/gcc-lib/i386-mingw32msvc/3.3.1/../../../../i386-mingw32msvc/lib/libmsvcrt.a(dzncs00176.o)
                0x6d6552b0                _imp___flsbuf
 .idata$5       0x6d6552b4        0x4 /opt/xmingw/lib/gcc-lib/i386-mingw32msvc/3.3.1/../../../../i386-mingw32msvc/lib/libmsvcrt.a(dzncs00222.o)
                0x6d6552b4                _imp___iob
 .idata$5       0x6d6552b8        0x4 /opt/xmingw/lib/gcc-lib/i386-mingw32msvc/3.3.1/../../../../i386-mingw32msvc/lib/libmsvcrt.a(dzncs00224.o)
                0x6d6552b8                _imp___isctype
 .idata$5       0x6d6552bc        0x4 /opt/xmingw/lib/gcc-lib/i386-mingw32msvc/3.3.1/../../../../i386-mingw32msvc/lib/libmsvcrt.a(dzncs00344.o)
                0x6d6552bc                _imp___pctype
 .idata$5       0x6d6552c0        0x4 /opt/xmingw/lib/gcc-lib/i386-mingw32msvc/3.3.1/../../../../i386-mingw32msvc/lib/libmsvcrt.a(dzncs00395.o)
                0x6d6552c0                _imp___stricmp
 .idata$5       0x6d6552c4        0x4 /opt/xmingw/lib/gcc-lib/i386-mingw32msvc/3.3.1/../../../../i386-mingw32msvc/lib/libmsvcrt.a(dzncs00510.o)
                0x6d6552c4                _imp__abort
 .idata$5       0x6d6552c8        0x4 /opt/xmingw/lib/gcc-lib/i386-mingw32msvc/3.3.1/../../../../i386-mingw32msvc/lib/libmsvcrt.a(dzncs00516.o)
                0x6d6552c8                _imp__atan2
 .idata$5       0x6d6552cc        0x4 /opt/xmingw/lib/gcc-lib/i386-mingw32msvc/3.3.1/../../../../i386-mingw32msvc/lib/libmsvcrt.a(dzncs00519.o)
                0x6d6552cc                _imp__atoi
 .idata$5       0x6d6552d0        0x4 /opt/xmingw/lib/gcc-lib/i386-mingw32msvc/3.3.1/../../../../i386-mingw32msvc/lib/libmsvcrt.a(dzncs00526.o)
                0x6d6552d0                _imp__cos
 .idata$5       0x6d6552d4        0x4 /opt/xmingw/lib/gcc-lib/i386-mingw32msvc/3.3.1/../../../../i386-mingw32msvc/lib/libmsvcrt.a(dzncs00531.o)
                0x6d6552d4                _imp__exit
 .idata$5       0x6d6552d8        0x4 /opt/xmingw/lib/gcc-lib/i386-mingw32msvc/3.3.1/../../../../i386-mingw32msvc/lib/libmsvcrt.a(dzncs00537.o)
                0x6d6552d8                _imp__fflush
 .idata$5       0x6d6552dc        0x4 /opt/xmingw/lib/gcc-lib/i386-mingw32msvc/3.3.1/../../../../i386-mingw32msvc/lib/libmsvcrt.a(dzncs00543.o)
                0x6d6552dc                _imp__floor
 .idata$5       0x6d6552e0        0x4 /opt/xmingw/lib/gcc-lib/i386-mingw32msvc/3.3.1/../../../../i386-mingw32msvc/lib/libmsvcrt.a(dzncs00546.o)
                0x6d6552e0                _imp__fprintf
 .idata$5       0x6d6552e4        0x4 /opt/xmingw/lib/gcc-lib/i386-mingw32msvc/3.3.1/../../../../i386-mingw32msvc/lib/libmsvcrt.a(dzncs00552.o)
                0x6d6552e4                _imp__free
 .idata$5       0x6d6552e8        0x4 /opt/xmingw/lib/gcc-lib/i386-mingw32msvc/3.3.1/../../../../i386-mingw32msvc/lib/libmsvcrt.a(dzncs00554.o)
                0x6d6552e8                _imp__frexp
 .idata$5       0x6d6552ec        0x4 /opt/xmingw/lib/gcc-lib/i386-mingw32msvc/3.3.1/../../../../i386-mingw32msvc/lib/libmsvcrt.a(dzncs00596.o)
                0x6d6552ec                _imp__ldexp
 .idata$5       0x6d6552f0        0x4 /opt/xmingw/lib/gcc-lib/i386-mingw32msvc/3.3.1/../../../../i386-mingw32msvc/lib/libmsvcrt.a(dzncs00603.o)
                0x6d6552f0                _imp__malloc
 .idata$5       0x6d6552f4        0x4 /opt/xmingw/lib/gcc-lib/i386-mingw32msvc/3.3.1/../../../../i386-mingw32msvc/lib/libmsvcrt.a(dzncs00609.o)
                0x6d6552f4                _imp__memcpy
 .idata$5       0x6d6552f8        0x4 /opt/xmingw/lib/gcc-lib/i386-mingw32msvc/3.3.1/../../../../i386-mingw32msvc/lib/libmsvcrt.a(dzncs00610.o)
                0x6d6552f8                _imp__memmove
 .idata$5       0x6d6552fc        0x4 /opt/xmingw/lib/gcc-lib/i386-mingw32msvc/3.3.1/../../../../i386-mingw32msvc/lib/libmsvcrt.a(dzncs00611.o)
                0x6d6552fc                _imp__memset
 .idata$5       0x6d655300        0x4 /opt/xmingw/lib/gcc-lib/i386-mingw32msvc/3.3.1/../../../../i386-mingw32msvc/lib/libmsvcrt.a(dzncs00616.o)
                0x6d655300                _imp__printf
 .idata$5       0x6d655304        0x4 /opt/xmingw/lib/gcc-lib/i386-mingw32msvc/3.3.1/../../../../i386-mingw32msvc/lib/libmsvcrt.a(dzncs00619.o)
                0x6d655304                _imp__puts
 .idata$5       0x6d655308        0x4 /opt/xmingw/lib/gcc-lib/i386-mingw32msvc/3.3.1/../../../../i386-mingw32msvc/lib/libmsvcrt.a(dzncs00624.o)
                0x6d655308                _imp__rand
 .idata$5       0x6d65530c        0x4 /opt/xmingw/lib/gcc-lib/i386-mingw32msvc/3.3.1/../../../../i386-mingw32msvc/lib/libmsvcrt.a(dzncs00625.o)
                0x6d65530c                _imp__realloc
 .idata$5       0x6d655310        0x4 /opt/xmingw/lib/gcc-lib/i386-mingw32msvc/3.3.1/../../../../i386-mingw32msvc/lib/libmsvcrt.a(dzncs00634.o)
                0x6d655310                _imp__sin
 .idata$5       0x6d655314        0x4 /opt/xmingw/lib/gcc-lib/i386-mingw32msvc/3.3.1/../../../../i386-mingw32msvc/lib/libmsvcrt.a(dzncs00636.o)
                0x6d655314                _imp__sprintf
 .idata$5       0x6d655318        0x4 /opt/xmingw/lib/gcc-lib/i386-mingw32msvc/3.3.1/../../../../i386-mingw32msvc/lib/libmsvcrt.a(dzncs00638.o)
                0x6d655318                _imp__srand
 .idata$5       0x6d65531c        0x4 /opt/xmingw/lib/gcc-lib/i386-mingw32msvc/3.3.1/../../../../i386-mingw32msvc/lib/libmsvcrt.a(dzncs00640.o)
                0x6d65531c                _imp__strcat
 .idata$5       0x6d655320        0x4 /opt/xmingw/lib/gcc-lib/i386-mingw32msvc/3.3.1/../../../../i386-mingw32msvc/lib/libmsvcrt.a(dzncs00642.o)
                0x6d655320                _imp__strcmp
 .idata$5       0x6d655324        0x4 /opt/xmingw/lib/gcc-lib/i386-mingw32msvc/3.3.1/../../../../i386-mingw32msvc/lib/libmsvcrt.a(dzncs00644.o)
                0x6d655324                _imp__strcpy
 .idata$5       0x6d655328        0x4 /opt/xmingw/lib/gcc-lib/i386-mingw32msvc/3.3.1/../../../../i386-mingw32msvc/lib/libmsvcrt.a(dzncs00648.o)
                0x6d655328                _imp__strlen
 .idata$5       0x6d65532c        0x4 /opt/xmingw/lib/gcc-lib/i386-mingw32msvc/3.3.1/../../../../i386-mingw32msvc/lib/libmsvcrt.a(dzncs00670.o)
                0x6d65532c                _imp__toupper
 .idata$5       0x6d655330        0x4 /opt/xmingw/lib/gcc-lib/i386-mingw32msvc/3.3.1/../../../../i386-mingw32msvc/lib/libmsvcrt.a(dznct.o)
 .idata$5       0x6d655334        0x4 /opt/xmingw/lib/gcc-lib/i386-mingw32msvc/3.3.1/../../../../i386-mingw32msvc/lib/libuser32.a(dynvbh.o)
 .idata$5       0x6d655338        0x4 /opt/xmingw/lib/gcc-lib/i386-mingw32msvc/3.3.1/../../../../i386-mingw32msvc/lib/libuser32.a(dynvbs00053.o)
                0x6d655338                _imp__CheckDlgButton@12
 .idata$5       0x6d65533c        0x4 /opt/xmingw/lib/gcc-lib/i386-mingw32msvc/3.3.1/../../../../i386-mingw32msvc/lib/libuser32.a(dynvbs00146.o)
                0x6d65533c                _imp__DialogBoxParamA@20
 .idata$5       0x6d655340        0x4 /opt/xmingw/lib/gcc-lib/i386-mingw32msvc/3.3.1/../../../../i386-mingw32msvc/lib/libuser32.a(dynvbs00179.o)
                0x6d655340                _imp__EnableWindow@8
 .idata$5       0x6d655344        0x4 /opt/xmingw/lib/gcc-lib/i386-mingw32msvc/3.3.1/../../../../i386-mingw32msvc/lib/libuser32.a(dynvbs00181.o)
                0x6d655344                _imp__EndDialog@8
 .idata$5       0x6d655348        0x4 /opt/xmingw/lib/gcc-lib/i386-mingw32msvc/3.3.1/../../../../i386-mingw32msvc/lib/libuser32.a(dynvbs00235.o)
                0x6d655348                _imp__GetClientRect@8
 .idata$5       0x6d65534c        0x4 /opt/xmingw/lib/gcc-lib/i386-mingw32msvc/3.3.1/../../../../i386-mingw32msvc/lib/libuser32.a(dynvbs00246.o)
                0x6d65534c                _imp__GetCursorPos@4
 .idata$5       0x6d655350        0x4 /opt/xmingw/lib/gcc-lib/i386-mingw32msvc/3.3.1/../../../../i386-mingw32msvc/lib/libuser32.a(dynvbs00247.o)
                0x6d655350                _imp__GetDC@4
 .idata$5       0x6d655354        0x4 /opt/xmingw/lib/gcc-lib/i386-mingw32msvc/3.3.1/../../../../i386-mingw32msvc/lib/libuser32.a(dynvbs00249.o)
                0x6d655354                _imp__GetDesktopWindow@0
 .idata$5       0x6d655358        0x4 /opt/xmingw/lib/gcc-lib/i386-mingw32msvc/3.3.1/../../../../i386-mingw32msvc/lib/libuser32.a(dynvbs00251.o)
                0x6d655358                _imp__GetDlgCtrlID@4
 .idata$5       0x6d65535c        0x4 /opt/xmingw/lib/gcc-lib/i386-mingw32msvc/3.3.1/../../../../i386-mingw32msvc/lib/libuser32.a(dynvbs00252.o)
                0x6d65535c                _imp__GetDlgItem@8
 .idata$5       0x6d655360        0x4 /opt/xmingw/lib/gcc-lib/i386-mingw32msvc/3.3.1/../../../../i386-mingw32msvc/lib/libuser32.a(dynvbs00253.o)
                0x6d655360                _imp__GetDlgItemInt@16
 .idata$5       0x6d655364        0x4 /opt/xmingw/lib/gcc-lib/i386-mingw32msvc/3.3.1/../../../../i386-mingw32msvc/lib/libuser32.a(dynvbs00254.o)
                0x6d655364                _imp__GetDlgItemTextA@16
 .idata$5       0x6d655368        0x4 /opt/xmingw/lib/gcc-lib/i386-mingw32msvc/3.3.1/../../../../i386-mingw32msvc/lib/libuser32.a(dynvbs00346.o)
                0x6d655368                _imp__GetWindowRect@8
 .idata$5       0x6d65536c        0x4 /opt/xmingw/lib/gcc-lib/i386-mingw32msvc/3.3.1/../../../../i386-mingw32msvc/lib/libuser32.a(dynvbs00383.o)
                0x6d65536c                _imp__IsDlgButtonChecked@8
 .idata$5       0x6d655370        0x4 /opt/xmingw/lib/gcc-lib/i386-mingw32msvc/3.3.1/../../../../i386-mingw32msvc/lib/libuser32.a(dynvbs00429.o)
                0x6d655370                _imp__MessageBeep@4
 .idata$5       0x6d655374        0x4 /opt/xmingw/lib/gcc-lib/i386-mingw32msvc/3.3.1/../../../../i386-mingw32msvc/lib/libuser32.a(dynvbs00430.o)
                0x6d655374                _imp__MessageBoxA@16
 .idata$5       0x6d655378        0x4 /opt/xmingw/lib/gcc-lib/i386-mingw32msvc/3.3.1/../../../../i386-mingw32msvc/lib/libuser32.a(dynvbs00438.o)
                0x6d655378                _imp__MoveWindow@24
 .idata$5       0x6d65537c        0x4 /opt/xmingw/lib/gcc-lib/i386-mingw32msvc/3.3.1/../../../../i386-mingw32msvc/lib/libuser32.a(dynvbs00482.o)
                0x6d65537c                _imp__ReleaseCapture@0
 .idata$5       0x6d655380        0x4 /opt/xmingw/lib/gcc-lib/i386-mingw32msvc/3.3.1/../../../../i386-mingw32msvc/lib/libuser32.a(dynvbs00483.o)
                0x6d655380                _imp__ReleaseDC@8
 .idata$5       0x6d655384        0x4 /opt/xmingw/lib/gcc-lib/i386-mingw32msvc/3.3.1/../../../../i386-mingw32msvc/lib/libuser32.a(dynvbs00494.o)
                0x6d655384                _imp__SendDlgItemMessageA@20
 .idata$5       0x6d655388        0x4 /opt/xmingw/lib/gcc-lib/i386-mingw32msvc/3.3.1/../../../../i386-mingw32msvc/lib/libuser32.a(dynvbs00506.o)
                0x6d655388                _imp__SetCapture@4
 .idata$5       0x6d65538c        0x4 /opt/xmingw/lib/gcc-lib/i386-mingw32msvc/3.3.1/../../../../i386-mingw32msvc/lib/libuser32.a(dynvbs00518.o)
                0x6d65538c                _imp__SetDlgItemInt@16
 .idata$5       0x6d655390        0x4 /opt/xmingw/lib/gcc-lib/i386-mingw32msvc/3.3.1/../../../../i386-mingw32msvc/lib/libuser32.a(dynvbs00519.o)
                0x6d655390                _imp__SetDlgItemTextA@12
 .idata$5       0x6d655394        0x4 /opt/xmingw/lib/gcc-lib/i386-mingw32msvc/3.3.1/../../../../i386-mingw32msvc/lib/libuser32.a(dynvbs00522.o)
                0x6d655394                _imp__SetFocus@4
 .idata$5       0x6d655398        0x4 /opt/xmingw/lib/gcc-lib/i386-mingw32msvc/3.3.1/../../../../i386-mingw32msvc/lib/libuser32.a(dynvbs00574.o)
                0x6d655398                _imp__ShowWindow@8
 .idata$5       0x6d65539c        0x4 /opt/xmingw/lib/gcc-lib/i386-mingw32msvc/3.3.1/../../../../i386-mingw32msvc/lib/libuser32.a(dynvbt.o)
 SORT(*)(.idata$6)
 .idata$6       0x6d6553a0       0x14 /opt/xmingw/lib/gcc-lib/i386-mingw32msvc/3.3.1/../../../../i386-mingw32msvc/lib/libcomdlg32.a(dkfvbs00009.o)
 .idata$6       0x6d6553b4       0x14 /opt/xmingw/lib/gcc-lib/i386-mingw32msvc/3.3.1/../../../../i386-mingw32msvc/lib/libcomdlg32.a(dkfvbs00011.o)
 .idata$6       0x6d6553c8       0x14 /opt/xmingw/lib/gcc-lib/i386-mingw32msvc/3.3.1/../../../../i386-mingw32msvc/lib/libgdi32.a(dihvbs00038.o)
 .idata$6       0x6d6553dc       0x10 /opt/xmingw/lib/gcc-lib/i386-mingw32msvc/3.3.1/../../../../i386-mingw32msvc/lib/libgdi32.a(dihvbs00072.o)
 .idata$6       0x6d6553ec       0x12 /opt/xmingw/lib/gcc-lib/i386-mingw32msvc/3.3.1/../../../../i386-mingw32msvc/lib/libgdi32.a(dihvbs00195.o)
 *fill*         0x6d6553fe        0x2 00
 .idata$6       0x6d655400        0xc /opt/xmingw/lib/gcc-lib/i386-mingw32msvc/3.3.1/../../../../i386-mingw32msvc/lib/libkernel32.a(dmivbs00001.o)
 .idata$6       0x6d65540c       0x18 /opt/xmingw/lib/gcc-lib/i386-mingw32msvc/3.3.1/../../../../i386-mingw32msvc/lib/libkernel32.a(dmivbs00019.o)
 .idata$6       0x6d655424        0xe /opt/xmingw/lib/gcc-lib/i386-mingw32msvc/3.3.1/../../../../i386-mingw32msvc/lib/libkernel32.a(dmivbs00038.o)
 *fill*         0x6d655432        0x2 00
 .idata$6       0x6d655434        0xc /opt/xmingw/lib/gcc-lib/i386-mingw32msvc/3.3.1/../../../../i386-mingw32msvc/lib/libkernel32.a(dmivbs00053.o)
 .idata$6       0x6d655440        0xe /opt/xmingw/lib/gcc-lib/i386-mingw32msvc/3.3.1/../../../../i386-mingw32msvc/lib/libkernel32.a(dmivbs00068.o)
 *fill*         0x6d65544e        0x2 00
 .idata$6       0x6d655450        0xe /opt/xmingw/lib/gcc-lib/i386-mingw32msvc/3.3.1/../../../../i386-mingw32msvc/lib/libkernel32.a(dmivbs00108.o)
 *fill*         0x6d65545e        0x2 00
 .idata$6       0x6d655460       0x16 /opt/xmingw/lib/gcc-lib/i386-mingw32msvc/3.3.1/../../../../i386-mingw32msvc/lib/libkernel32.a(dmivbs00123.o)
 *fill*         0x6d655476        0x2 00
 .idata$6       0x6d655478        0xc /opt/xmingw/lib/gcc-lib/i386-mingw32msvc/3.3.1/../../../../i386-mingw32msvc/lib/libkernel32.a(dmivbs00175.o)
 .idata$6       0x6d655484       0x10 /opt/xmingw/lib/gcc-lib/i386-mingw32msvc/3.3.1/../../../../i386-mingw32msvc/lib/libkernel32.a(dmivbs00196.o)
 .idata$6       0x6d655494       0x12 /opt/xmingw/lib/gcc-lib/i386-mingw32msvc/3.3.1/../../../../i386-mingw32msvc/lib/libkernel32.a(dmivbs00208.o)
 *fill*         0x6d6554a6        0x2 00
 .idata$6       0x6d6554a8        0xe /opt/xmingw/lib/gcc-lib/i386-mingw32msvc/3.3.1/../../../../i386-mingw32msvc/lib/libkernel32.a(dmivbs00213.o)
 *fill*         0x6d6554b6        0x2 00
 .idata$6       0x6d6554b8       0x10 /opt/xmingw/lib/gcc-lib/i386-mingw32msvc/3.3.1/../../../../i386-mingw32msvc/lib/libkernel32.a(dmivbs00220.o)
 .idata$6       0x6d6554c8        0xe /opt/xmingw/lib/gcc-lib/i386-mingw32msvc/3.3.1/../../../../i386-mingw32msvc/lib/libkernel32.a(dmivbs00311.o)
 *fill*         0x6d6554d6        0x2 00
 .idata$6       0x6d6554d8       0x10 /opt/xmingw/lib/gcc-lib/i386-mingw32msvc/3.3.1/../../../../i386-mingw32msvc/lib/libkernel32.a(dmivbs00323.o)
 .idata$6       0x6d6554e8       0x16 /opt/xmingw/lib/gcc-lib/i386-mingw32msvc/3.3.1/../../../../i386-mingw32msvc/lib/libkernel32.a(dmivbs00333.o)
 *fill*         0x6d6554fe        0x2 00
 .idata$6       0x6d655500       0x10 /opt/xmingw/lib/gcc-lib/i386-mingw32msvc/3.3.1/../../../../i386-mingw32msvc/lib/libkernel32.a(dmivbs00421.o)
 .idata$6       0x6d655510       0x10 /opt/xmingw/lib/gcc-lib/i386-mingw32msvc/3.3.1/../../../../i386-mingw32msvc/lib/libkernel32.a(dmivbs00431.o)
 .idata$6       0x6d655520       0x12 /opt/xmingw/lib/gcc-lib/i386-mingw32msvc/3.3.1/../../../../i386-mingw32msvc/lib/libkernel32.a(dmivbs00523.o)
 *fill*         0x6d655532        0x2 00
 .idata$6       0x6d655534       0x10 /opt/xmingw/lib/gcc-lib/i386-mingw32msvc/3.3.1/../../../../i386-mingw32msvc/lib/libkernel32.a(dmivbs00527.o)
 .idata$6       0x6d655544       0x10 /opt/xmingw/lib/gcc-lib/i386-mingw32msvc/3.3.1/../../../../i386-mingw32msvc/lib/libkernel32.a(dmivbs00541.o)
 .idata$6       0x6d655554        0xc /opt/xmingw/lib/gcc-lib/i386-mingw32msvc/3.3.1/../../../../i386-mingw32msvc/lib/libkernel32.a(dmivbs00613.o)
 .idata$6       0x6d655560       0x10 /opt/xmingw/lib/gcc-lib/i386-mingw32msvc/3.3.1/../../../../i386-mingw32msvc/lib/libkernel32.a(dmivbs00690.o)
 .idata$6       0x6d655570       0x12 /opt/xmingw/lib/gcc-lib/i386-mingw32msvc/3.3.1/../../../../i386-mingw32msvc/lib/libkernel32.a(dmivbs00699.o)
 *fill*         0x6d655582        0x2 00
 .idata$6       0x6d655584       0x12 /opt/xmingw/lib/gcc-lib/i386-mingw32msvc/3.3.1/../../../../i386-mingw32msvc/lib/libkernel32.a(dmivbs00746.o)
 *fill*         0x6d655596        0x2 00
 .idata$6       0x6d655598       0x12 /opt/xmingw/lib/gcc-lib/i386-mingw32msvc/3.3.1/../../../../i386-mingw32msvc/lib/libkernel32.a(dmivbs00776.o)
 *fill*         0x6d6555aa        0x2 00
 .idata$6       0x6d6555ac        0xc /opt/xmingw/lib/gcc-lib/i386-mingw32msvc/3.3.1/../../../../i386-mingw32msvc/lib/libkernel32.a(dmivbs00822.o)
 .idata$6       0x6d6555b8        0xe /opt/xmingw/lib/gcc-lib/i386-mingw32msvc/3.3.1/../../../../i386-mingw32msvc/lib/libmsvcrt.a(dzncs00036.o)
 *fill*         0x6d6555c6        0x2 00
 .idata$6       0x6d6555c8       0x10 /opt/xmingw/lib/gcc-lib/i386-mingw32msvc/3.3.1/../../../../i386-mingw32msvc/lib/libmsvcrt.a(dzncs00047.o)
 .idata$6       0x6d6555d8        0xa /opt/xmingw/lib/gcc-lib/i386-mingw32msvc/3.3.1/../../../../i386-mingw32msvc/lib/libmsvcrt.a(dzncs00147.o)
 *fill*         0x6d6555e2        0x2 00
 .idata$6       0x6d6555e4        0xa /opt/xmingw/lib/gcc-lib/i386-mingw32msvc/3.3.1/../../../../i386-mingw32msvc/lib/libmsvcrt.a(dzncs00176.o)
 *fill*         0x6d6555ee        0x2 00
 .idata$6       0x6d6555f0        0x8 /opt/xmingw/lib/gcc-lib/i386-mingw32msvc/3.3.1/../../../../i386-mingw32msvc/lib/libmsvcrt.a(dzncs00222.o)
 .idata$6       0x6d6555f8        0xc /opt/xmingw/lib/gcc-lib/i386-mingw32msvc/3.3.1/../../../../i386-mingw32msvc/lib/libmsvcrt.a(dzncs00224.o)
 .idata$6       0x6d655604        0xa /opt/xmingw/lib/gcc-lib/i386-mingw32msvc/3.3.1/../../../../i386-mingw32msvc/lib/libmsvcrt.a(dzncs00344.o)
 *fill*         0x6d65560e        0x2 00
 .idata$6       0x6d655610        0xc /opt/xmingw/lib/gcc-lib/i386-mingw32msvc/3.3.1/../../../../i386-mingw32msvc/lib/libmsvcrt.a(dzncs00395.o)
 .idata$6       0x6d65561c        0x8 /opt/xmingw/lib/gcc-lib/i386-mingw32msvc/3.3.1/../../../../i386-mingw32msvc/lib/libmsvcrt.a(dzncs00510.o)
 .idata$6       0x6d655624        0x8 /opt/xmingw/lib/gcc-lib/i386-mingw32msvc/3.3.1/../../../../i386-mingw32msvc/lib/libmsvcrt.a(dzncs00516.o)
 .idata$6       0x6d65562c        0x8 /opt/xmingw/lib/gcc-lib/i386-mingw32msvc/3.3.1/../../../../i386-mingw32msvc/lib/libmsvcrt.a(dzncs00519.o)
 .idata$6       0x6d655634        0x6 /opt/xmingw/lib/gcc-lib/i386-mingw32msvc/3.3.1/../../../../i386-mingw32msvc/lib/libmsvcrt.a(dzncs00526.o)
 *fill*         0x6d65563a        0x2 00
 .idata$6       0x6d65563c        0x8 /opt/xmingw/lib/gcc-lib/i386-mingw32msvc/3.3.1/../../../../i386-mingw32msvc/lib/libmsvcrt.a(dzncs00531.o)
 .idata$6       0x6d655644        0xa /opt/xmingw/lib/gcc-lib/i386-mingw32msvc/3.3.1/../../../../i386-mingw32msvc/lib/libmsvcrt.a(dzncs00537.o)
 *fill*         0x6d65564e        0x2 00
 .idata$6       0x6d655650        0x8 /opt/xmingw/lib/gcc-lib/i386-mingw32msvc/3.3.1/../../../../i386-mingw32msvc/lib/libmsvcrt.a(dzncs00543.o)
 .idata$6       0x6d655658        0xa /opt/xmingw/lib/gcc-lib/i386-mingw32msvc/3.3.1/../../../../i386-mingw32msvc/lib/libmsvcrt.a(dzncs00546.o)
 *fill*         0x6d655662        0x2 00
 .idata$6       0x6d655664        0x8 /opt/xmingw/lib/gcc-lib/i386-mingw32msvc/3.3.1/../../../../i386-mingw32msvc/lib/libmsvcrt.a(dzncs00552.o)
 .idata$6       0x6d65566c        0x8 /opt/xmingw/lib/gcc-lib/i386-mingw32msvc/3.3.1/../../../../i386-mingw32msvc/lib/libmsvcrt.a(dzncs00554.o)
 .idata$6       0x6d655674        0x8 /opt/xmingw/lib/gcc-lib/i386-mingw32msvc/3.3.1/../../../../i386-mingw32msvc/lib/libmsvcrt.a(dzncs00596.o)
 .idata$6       0x6d65567c        0xa /opt/xmingw/lib/gcc-lib/i386-mingw32msvc/3.3.1/../../../../i386-mingw32msvc/lib/libmsvcrt.a(dzncs00603.o)
 *fill*         0x6d655686        0x2 00
 .idata$6       0x6d655688        0xa /opt/xmingw/lib/gcc-lib/i386-mingw32msvc/3.3.1/../../../../i386-mingw32msvc/lib/libmsvcrt.a(dzncs00609.o)
 *fill*         0x6d655692        0x2 00
 .idata$6       0x6d655694        0xa /opt/xmingw/lib/gcc-lib/i386-mingw32msvc/3.3.1/../../../../i386-mingw32msvc/lib/libmsvcrt.a(dzncs00610.o)
 *fill*         0x6d65569e        0x2 00
 .idata$6       0x6d6556a0        0xa /opt/xmingw/lib/gcc-lib/i386-mingw32msvc/3.3.1/../../../../i386-mingw32msvc/lib/libmsvcrt.a(dzncs00611.o)
 *fill*         0x6d6556aa        0x2 00
 .idata$6       0x6d6556ac        0xa /opt/xmingw/lib/gcc-lib/i386-mingw32msvc/3.3.1/../../../../i386-mingw32msvc/lib/libmsvcrt.a(dzncs00616.o)
 *fill*         0x6d6556b6        0x2 00
 .idata$6       0x6d6556b8        0x8 /opt/xmingw/lib/gcc-lib/i386-mingw32msvc/3.3.1/../../../../i386-mingw32msvc/lib/libmsvcrt.a(dzncs00619.o)
 .idata$6       0x6d6556c0        0x8 /opt/xmingw/lib/gcc-lib/i386-mingw32msvc/3.3.1/../../../../i386-mingw32msvc/lib/libmsvcrt.a(dzncs00624.o)
 .idata$6       0x6d6556c8        0xa /opt/xmingw/lib/gcc-lib/i386-mingw32msvc/3.3.1/../../../../i386-mingw32msvc/lib/libmsvcrt.a(dzncs00625.o)
 *fill*         0x6d6556d2        0x2 00
 .idata$6       0x6d6556d4        0x6 /opt/xmingw/lib/gcc-lib/i386-mingw32msvc/3.3.1/../../../../i386-mingw32msvc/lib/libmsvcrt.a(dzncs00634.o)
 *fill*         0x6d6556da        0x2 00
 .idata$6       0x6d6556dc        0xa /opt/xmingw/lib/gcc-lib/i386-mingw32msvc/3.3.1/../../../../i386-mingw32msvc/lib/libmsvcrt.a(dzncs00636.o)
 *fill*         0x6d6556e6        0x2 00
 .idata$6       0x6d6556e8        0x8 /opt/xmingw/lib/gcc-lib/i386-mingw32msvc/3.3.1/../../../../i386-mingw32msvc/lib/libmsvcrt.a(dzncs00638.o)
 .idata$6       0x6d6556f0        0xa /opt/xmingw/lib/gcc-lib/i386-mingw32msvc/3.3.1/../../../../i386-mingw32msvc/lib/libmsvcrt.a(dzncs00640.o)
 *fill*         0x6d6556fa        0x2 00
 .idata$6       0x6d6556fc        0xa /opt/xmingw/lib/gcc-lib/i386-mingw32msvc/3.3.1/../../../../i386-mingw32msvc/lib/libmsvcrt.a(dzncs00642.o)
 *fill*         0x6d655706        0x2 00
 .idata$6       0x6d655708        0xa /opt/xmingw/lib/gcc-lib/i386-mingw32msvc/3.3.1/../../../../i386-mingw32msvc/lib/libmsvcrt.a(dzncs00644.o)
 *fill*         0x6d655712        0x2 00
 .idata$6       0x6d655714        0xa /opt/xmingw/lib/gcc-lib/i386-mingw32msvc/3.3.1/../../../../i386-mingw32msvc/lib/libmsvcrt.a(dzncs00648.o)
 *fill*         0x6d65571e        0x2 00
 .idata$6       0x6d655720        0xa /opt/xmingw/lib/gcc-lib/i386-mingw32msvc/3.3.1/../../../../i386-mingw32msvc/lib/libmsvcrt.a(dzncs00670.o)
 *fill*         0x6d65572a        0x2 00
 .idata$6       0x6d65572c       0x12 /opt/xmingw/lib/gcc-lib/i386-mingw32msvc/3.3.1/../../../../i386-mingw32msvc/lib/libuser32.a(dynvbs00053.o)
 *fill*         0x6d65573e        0x2 00
 .idata$6       0x6d655740       0x12 /opt/xmingw/lib/gcc-lib/i386-mingw32msvc/3.3.1/../../../../i386-mingw32msvc/lib/libuser32.a(dynvbs00146.o)
 *fill*         0x6d655752        0x2 00
 .idata$6       0x6d655754       0x10 /opt/xmingw/lib/gcc-lib/i386-mingw32msvc/3.3.1/../../../../i386-mingw32msvc/lib/libuser32.a(dynvbs00179.o)
 .idata$6       0x6d655764        0xc /opt/xmingw/lib/gcc-lib/i386-mingw32msvc/3.3.1/../../../../i386-mingw32msvc/lib/libuser32.a(dynvbs00181.o)
 .idata$6       0x6d655770       0x10 /opt/xmingw/lib/gcc-lib/i386-mingw32msvc/3.3.1/../../../../i386-mingw32msvc/lib/libuser32.a(dynvbs00235.o)
 .idata$6       0x6d655780       0x10 /opt/xmingw/lib/gcc-lib/i386-mingw32msvc/3.3.1/../../../../i386-mingw32msvc/lib/libuser32.a(dynvbs00246.o)
 .idata$6       0x6d655790        0x8 /opt/xmingw/lib/gcc-lib/i386-mingw32msvc/3.3.1/../../../../i386-mingw32msvc/lib/libuser32.a(dynvbs00247.o)
 .idata$6       0x6d655798       0x14 /opt/xmingw/lib/gcc-lib/i386-mingw32msvc/3.3.1/../../../../i386-mingw32msvc/lib/libuser32.a(dynvbs00249.o)
 .idata$6       0x6d6557ac       0x10 /opt/xmingw/lib/gcc-lib/i386-mingw32msvc/3.3.1/../../../../i386-mingw32msvc/lib/libuser32.a(dynvbs00251.o)
 .idata$6       0x6d6557bc        0xe /opt/xmingw/lib/gcc-lib/i386-mingw32msvc/3.3.1/../../../../i386-mingw32msvc/lib/libuser32.a(dynvbs00252.o)
 *fill*         0x6d6557ca        0x2 00
 .idata$6       0x6d6557cc       0x10 /opt/xmingw/lib/gcc-lib/i386-mingw32msvc/3.3.1/../../../../i386-mingw32msvc/lib/libuser32.a(dynvbs00253.o)
 .idata$6       0x6d6557dc       0x12 /opt/xmingw/lib/gcc-lib/i386-mingw32msvc/3.3.1/../../../../i386-mingw32msvc/lib/libuser32.a(dynvbs00254.o)
 *fill*         0x6d6557ee        0x2 00
 .idata$6       0x6d6557f0       0x10 /opt/xmingw/lib/gcc-lib/i386-mingw32msvc/3.3.1/../../../../i386-mingw32msvc/lib/libuser32.a(dynvbs00346.o)
 .idata$6       0x6d655800       0x16 /opt/xmingw/lib/gcc-lib/i386-mingw32msvc/3.3.1/../../../../i386-mingw32msvc/lib/libuser32.a(dynvbs00383.o)
 *fill*         0x6d655816        0x2 00
 .idata$6       0x6d655818        0xe /opt/xmingw/lib/gcc-lib/i386-mingw32msvc/3.3.1/../../../../i386-mingw32msvc/lib/libuser32.a(dynvbs00429.o)
 *fill*         0x6d655826        0x2 00
 .idata$6       0x6d655828        0xe /opt/xmingw/lib/gcc-lib/i386-mingw32msvc/3.3.1/../../../../i386-mingw32msvc/lib/libuser32.a(dynvbs00430.o)
 *fill*         0x6d655836        0x2 00
 .idata$6       0x6d655838        0xe /opt/xmingw/lib/gcc-lib/i386-mingw32msvc/3.3.1/../../../../i386-mingw32msvc/lib/libuser32.a(dynvbs00438.o)
 *fill*         0x6d655846        0x2 00
 .idata$6       0x6d655848       0x12 /opt/xmingw/lib/gcc-lib/i386-mingw32msvc/3.3.1/../../../../i386-mingw32msvc/lib/libuser32.a(dynvbs00482.o)
 *fill*         0x6d65585a        0x2 00
 .idata$6       0x6d65585c        0xc /opt/xmingw/lib/gcc-lib/i386-mingw32msvc/3.3.1/../../../../i386-mingw32msvc/lib/libuser32.a(dynvbs00483.o)
 .idata$6       0x6d655868       0x16 /opt/xmingw/lib/gcc-lib/i386-mingw32msvc/3.3.1/../../../../i386-mingw32msvc/lib/libuser32.a(dynvbs00494.o)
 *fill*         0x6d65587e        0x2 00
 .idata$6       0x6d655880        0xe /opt/xmingw/lib/gcc-lib/i386-mingw32msvc/3.3.1/../../../../i386-mingw32msvc/lib/libuser32.a(dynvbs00506.o)
 *fill*         0x6d65588e        0x2 00
 .idata$6       0x6d655890       0x10 /opt/xmingw/lib/gcc-lib/i386-mingw32msvc/3.3.1/../../../../i386-mingw32msvc/lib/libuser32.a(dynvbs00518.o)
 .idata$6       0x6d6558a0       0x12 /opt/xmingw/lib/gcc-lib/i386-mingw32msvc/3.3.1/../../../../i386-mingw32msvc/lib/libuser32.a(dynvbs00519.o)
 *fill*         0x6d6558b2        0x2 00
 .idata$6       0x6d6558b4        0xc /opt/xmingw/lib/gcc-lib/i386-mingw32msvc/3.3.1/../../../../i386-mingw32msvc/lib/libuser32.a(dynvbs00522.o)
 .idata$6       0x6d6558c0        0xe /opt/xmingw/lib/gcc-lib/i386-mingw32msvc/3.3.1/../../../../i386-mingw32msvc/lib/libuser32.a(dynvbs00574.o)
 SORT(*)(.idata$7)
 *fill*         0x6d6558ce        0x2 00
 .idata$7       0x6d6558d0        0x4 /opt/xmingw/lib/gcc-lib/i386-mingw32msvc/3.3.1/../../../../i386-mingw32msvc/lib/libcomdlg32.a(dkfvbs00009.o)
 .idata$7       0x6d6558d4        0x4 /opt/xmingw/lib/gcc-lib/i386-mingw32msvc/3.3.1/../../../../i386-mingw32msvc/lib/libcomdlg32.a(dkfvbs00011.o)
 .idata$7       0x6d6558d8       0x10 /opt/xmingw/lib/gcc-lib/i386-mingw32msvc/3.3.1/../../../../i386-mingw32msvc/lib/libcomdlg32.a(dkfvbt.o)
                0x6d6558d8                _libcomdlg32_a_iname
 .idata$7       0x6d6558e8        0x4 /opt/xmingw/lib/gcc-lib/i386-mingw32msvc/3.3.1/../../../../i386-mingw32msvc/lib/libgdi32.a(dihvbs00038.o)
 .idata$7       0x6d6558ec        0x4 /opt/xmingw/lib/gcc-lib/i386-mingw32msvc/3.3.1/../../../../i386-mingw32msvc/lib/libgdi32.a(dihvbs00072.o)
 .idata$7       0x6d6558f0        0x4 /opt/xmingw/lib/gcc-lib/i386-mingw32msvc/3.3.1/../../../../i386-mingw32msvc/lib/libgdi32.a(dihvbs00195.o)
 .idata$7       0x6d6558f4        0xc /opt/xmingw/lib/gcc-lib/i386-mingw32msvc/3.3.1/../../../../i386-mingw32msvc/lib/libgdi32.a(dihvbt.o)
                0x6d6558f4                _libgdi32_a_iname
 .idata$7       0x6d655900        0x4 /opt/xmingw/lib/gcc-lib/i386-mingw32msvc/3.3.1/../../../../i386-mingw32msvc/lib/libkernel32.a(dmivbs00001.o)
 .idata$7       0x6d655904        0x4 /opt/xmingw/lib/gcc-lib/i386-mingw32msvc/3.3.1/../../../../i386-mingw32msvc/lib/libkernel32.a(dmivbs00019.o)
 .idata$7       0x6d655908        0x4 /opt/xmingw/lib/gcc-lib/i386-mingw32msvc/3.3.1/../../../../i386-mingw32msvc/lib/libkernel32.a(dmivbs00038.o)
 .idata$7       0x6d65590c        0x4 /opt/xmingw/lib/gcc-lib/i386-mingw32msvc/3.3.1/../../../../i386-mingw32msvc/lib/libkernel32.a(dmivbs00053.o)
 .idata$7       0x6d655910        0x4 /opt/xmingw/lib/gcc-lib/i386-mingw32msvc/3.3.1/../../../../i386-mingw32msvc/lib/libkernel32.a(dmivbs00068.o)
 .idata$7       0x6d655914        0x4 /opt/xmingw/lib/gcc-lib/i386-mingw32msvc/3.3.1/../../../../i386-mingw32msvc/lib/libkernel32.a(dmivbs00108.o)
 .idata$7       0x6d655918        0x4 /opt/xmingw/lib/gcc-lib/i386-mingw32msvc/3.3.1/../../../../i386-mingw32msvc/lib/libkernel32.a(dmivbs00123.o)
 .idata$7       0x6d65591c        0x4 /opt/xmingw/lib/gcc-lib/i386-mingw32msvc/3.3.1/../../../../i386-mingw32msvc/lib/libkernel32.a(dmivbs00175.o)
 .idata$7       0x6d655920        0x4 /opt/xmingw/lib/gcc-lib/i386-mingw32msvc/3.3.1/../../../../i386-mingw32msvc/lib/libkernel32.a(dmivbs00196.o)
 .idata$7       0x6d655924        0x4 /opt/xmingw/lib/gcc-lib/i386-mingw32msvc/3.3.1/../../../../i386-mingw32msvc/lib/libkernel32.a(dmivbs00208.o)
 .idata$7       0x6d655928        0x4 /opt/xmingw/lib/gcc-lib/i386-mingw32msvc/3.3.1/../../../../i386-mingw32msvc/lib/libkernel32.a(dmivbs00213.o)
 .idata$7       0x6d65592c        0x4 /opt/xmingw/lib/gcc-lib/i386-mingw32msvc/3.3.1/../../../../i386-mingw32msvc/lib/libkernel32.a(dmivbs00220.o)
 .idata$7       0x6d655930        0x4 /opt/xmingw/lib/gcc-lib/i386-mingw32msvc/3.3.1/../../../../i386-mingw32msvc/lib/libkernel32.a(dmivbs00311.o)
 .idata$7       0x6d655934        0x4 /opt/xmingw/lib/gcc-lib/i386-mingw32msvc/3.3.1/../../../../i386-mingw32msvc/lib/libkernel32.a(dmivbs00323.o)
 .idata$7       0x6d655938        0x4 /opt/xmingw/lib/gcc-lib/i386-mingw32msvc/3.3.1/../../../../i386-mingw32msvc/lib/libkernel32.a(dmivbs00333.o)
 .idata$7       0x6d65593c        0x4 /opt/xmingw/lib/gcc-lib/i386-mingw32msvc/3.3.1/../../../../i386-mingw32msvc/lib/libkernel32.a(dmivbs00421.o)
 .idata$7       0x6d655940        0x4 /opt/xmingw/lib/gcc-lib/i386-mingw32msvc/3.3.1/../../../../i386-mingw32msvc/lib/libkernel32.a(dmivbs00431.o)
 .idata$7       0x6d655944        0x4 /opt/xmingw/lib/gcc-lib/i386-mingw32msvc/3.3.1/../../../../i386-mingw32msvc/lib/libkernel32.a(dmivbs00523.o)
 .idata$7       0x6d655948        0x4 /opt/xmingw/lib/gcc-lib/i386-mingw32msvc/3.3.1/../../../../i386-mingw32msvc/lib/libkernel32.a(dmivbs00527.o)
 .idata$7       0x6d65594c        0x4 /opt/xmingw/lib/gcc-lib/i386-mingw32msvc/3.3.1/../../../../i386-mingw32msvc/lib/libkernel32.a(dmivbs00541.o)
 .idata$7       0x6d655950        0x4 /opt/xmingw/lib/gcc-lib/i386-mingw32msvc/3.3.1/../../../../i386-mingw32msvc/lib/libkernel32.a(dmivbs00613.o)
 .idata$7       0x6d655954        0x4 /opt/xmingw/lib/gcc-lib/i386-mingw32msvc/3.3.1/../../../../i386-mingw32msvc/lib/libkernel32.a(dmivbs00690.o)
 .idata$7       0x6d655958        0x4 /opt/xmingw/lib/gcc-lib/i386-mingw32msvc/3.3.1/../../../../i386-mingw32msvc/lib/libkernel32.a(dmivbs00699.o)
 .idata$7       0x6d65595c        0x4 /opt/xmingw/lib/gcc-lib/i386-mingw32msvc/3.3.1/../../../../i386-mingw32msvc/lib/libkernel32.a(dmivbs00746.o)
 .idata$7       0x6d655960        0x4 /opt/xmingw/lib/gcc-lib/i386-mingw32msvc/3.3.1/../../../../i386-mingw32msvc/lib/libkernel32.a(dmivbs00776.o)
 .idata$7       0x6d655964        0x4 /opt/xmingw/lib/gcc-lib/i386-mingw32msvc/3.3.1/../../../../i386-mingw32msvc/lib/libkernel32.a(dmivbs00822.o)
 .idata$7       0x6d655968       0x10 /opt/xmingw/lib/gcc-lib/i386-mingw32msvc/3.3.1/../../../../i386-mingw32msvc/lib/libkernel32.a(dmivbt.o)
                0x6d655968                _libkernel32_a_iname
 .idata$7       0x6d655978        0x4 /opt/xmingw/lib/gcc-lib/i386-mingw32msvc/3.3.1/../../../../i386-mingw32msvc/lib/libmsvcrt.a(dzncs00036.o)
 .idata$7       0x6d65597c        0x4 /opt/xmingw/lib/gcc-lib/i386-mingw32msvc/3.3.1/../../../../i386-mingw32msvc/lib/libmsvcrt.a(dzncs00047.o)
 .idata$7       0x6d655980        0x4 /opt/xmingw/lib/gcc-lib/i386-mingw32msvc/3.3.1/../../../../i386-mingw32msvc/lib/libmsvcrt.a(dzncs00147.o)
 .idata$7       0x6d655984        0x4 /opt/xmingw/lib/gcc-lib/i386-mingw32msvc/3.3.1/../../../../i386-mingw32msvc/lib/libmsvcrt.a(dzncs00176.o)
 .idata$7       0x6d655988        0x4 /opt/xmingw/lib/gcc-lib/i386-mingw32msvc/3.3.1/../../../../i386-mingw32msvc/lib/libmsvcrt.a(dzncs00222.o)
 .idata$7       0x6d65598c        0x4 /opt/xmingw/lib/gcc-lib/i386-mingw32msvc/3.3.1/../../../../i386-mingw32msvc/lib/libmsvcrt.a(dzncs00224.o)
 .idata$7       0x6d655990        0x4 /opt/xmingw/lib/gcc-lib/i386-mingw32msvc/3.3.1/../../../../i386-mingw32msvc/lib/libmsvcrt.a(dzncs00344.o)
 .idata$7       0x6d655994        0x4 /opt/xmingw/lib/gcc-lib/i386-mingw32msvc/3.3.1/../../../../i386-mingw32msvc/lib/libmsvcrt.a(dzncs00395.o)
 .idata$7       0x6d655998        0x4 /opt/xmingw/lib/gcc-lib/i386-mingw32msvc/3.3.1/../../../../i386-mingw32msvc/lib/libmsvcrt.a(dzncs00510.o)
 .idata$7       0x6d65599c        0x4 /opt/xmingw/lib/gcc-lib/i386-mingw32msvc/3.3.1/../../../../i386-mingw32msvc/lib/libmsvcrt.a(dzncs00516.o)
 .idata$7       0x6d6559a0        0x4 /opt/xmingw/lib/gcc-lib/i386-mingw32msvc/3.3.1/../../../../i386-mingw32msvc/lib/libmsvcrt.a(dzncs00519.o)
 .idata$7       0x6d6559a4        0x4 /opt/xmingw/lib/gcc-lib/i386-mingw32msvc/3.3.1/../../../../i386-mingw32msvc/lib/libmsvcrt.a(dzncs00526.o)
 .idata$7       0x6d6559a8        0x4 /opt/xmingw/lib/gcc-lib/i386-mingw32msvc/3.3.1/../../../../i386-mingw32msvc/lib/libmsvcrt.a(dzncs00531.o)
 .idata$7       0x6d6559ac        0x4 /opt/xmingw/lib/gcc-lib/i386-mingw32msvc/3.3.1/../../../../i386-mingw32msvc/lib/libmsvcrt.a(dzncs00537.o)
 .idata$7       0x6d6559b0        0x4 /opt/xmingw/lib/gcc-lib/i386-mingw32msvc/3.3.1/../../../../i386-mingw32msvc/lib/libmsvcrt.a(dzncs00543.o)
 .idata$7       0x6d6559b4        0x4 /opt/xmingw/lib/gcc-lib/i386-mingw32msvc/3.3.1/../../../../i386-mingw32msvc/lib/libmsvcrt.a(dzncs00546.o)
 .idata$7       0x6d6559b8        0x4 /opt/xmingw/lib/gcc-lib/i386-mingw32msvc/3.3.1/../../../../i386-mingw32msvc/lib/libmsvcrt.a(dzncs00552.o)
 .idata$7       0x6d6559bc        0x4 /opt/xmingw/lib/gcc-lib/i386-mingw32msvc/3.3.1/../../../../i386-mingw32msvc/lib/libmsvcrt.a(dzncs00554.o)
 .idata$7       0x6d6559c0        0x4 /opt/xmingw/lib/gcc-lib/i386-mingw32msvc/3.3.1/../../../../i386-mingw32msvc/lib/libmsvcrt.a(dzncs00596.o)
 .idata$7       0x6d6559c4        0x4 /opt/xmingw/lib/gcc-lib/i386-mingw32msvc/3.3.1/../../../../i386-mingw32msvc/lib/libmsvcrt.a(dzncs00603.o)
 .idata$7       0x6d6559c8        0x4 /opt/xmingw/lib/gcc-lib/i386-mingw32msvc/3.3.1/../../../../i386-mingw32msvc/lib/libmsvcrt.a(dzncs00609.o)
 .idata$7       0x6d6559cc        0x4 /opt/xmingw/lib/gcc-lib/i386-mingw32msvc/3.3.1/../../../../i386-mingw32msvc/lib/libmsvcrt.a(dzncs00610.o)
 .idata$7       0x6d6559d0        0x4 /opt/xmingw/lib/gcc-lib/i386-mingw32msvc/3.3.1/../../../../i386-mingw32msvc/lib/libmsvcrt.a(dzncs00611.o)
 .idata$7       0x6d6559d4        0x4 /opt/xmingw/lib/gcc-lib/i386-mingw32msvc/3.3.1/../../../../i386-mingw32msvc/lib/libmsvcrt.a(dzncs00616.o)
 .idata$7       0x6d6559d8        0x4 /opt/xmingw/lib/gcc-lib/i386-mingw32msvc/3.3.1/../../../../i386-mingw32msvc/lib/libmsvcrt.a(dzncs00619.o)
 .idata$7       0x6d6559dc        0x4 /opt/xmingw/lib/gcc-lib/i386-mingw32msvc/3.3.1/../../../../i386-mingw32msvc/lib/libmsvcrt.a(dzncs00624.o)
 .idata$7       0x6d6559e0        0x4 /opt/xmingw/lib/gcc-lib/i386-mingw32msvc/3.3.1/../../../../i386-mingw32msvc/lib/libmsvcrt.a(dzncs00625.o)
 .idata$7       0x6d6559e4        0x4 /opt/xmingw/lib/gcc-lib/i386-mingw32msvc/3.3.1/../../../../i386-mingw32msvc/lib/libmsvcrt.a(dzncs00634.o)
 .idata$7       0x6d6559e8        0x4 /opt/xmingw/lib/gcc-lib/i386-mingw32msvc/3.3.1/../../../../i386-mingw32msvc/lib/libmsvcrt.a(dzncs00636.o)
 .idata$7       0x6d6559ec        0x4 /opt/xmingw/lib/gcc-lib/i386-mingw32msvc/3.3.1/../../../../i386-mingw32msvc/lib/libmsvcrt.a(dzncs00638.o)
 .idata$7       0x6d6559f0        0x4 /opt/xmingw/lib/gcc-lib/i386-mingw32msvc/3.3.1/../../../../i386-mingw32msvc/lib/libmsvcrt.a(dzncs00640.o)
 .idata$7       0x6d6559f4        0x4 /opt/xmingw/lib/gcc-lib/i386-mingw32msvc/3.3.1/../../../../i386-mingw32msvc/lib/libmsvcrt.a(dzncs00642.o)
 .idata$7       0x6d6559f8        0x4 /opt/xmingw/lib/gcc-lib/i386-mingw32msvc/3.3.1/../../../../i386-mingw32msvc/lib/libmsvcrt.a(dzncs00644.o)
 .idata$7       0x6d6559fc        0x4 /opt/xmingw/lib/gcc-lib/i386-mingw32msvc/3.3.1/../../../../i386-mingw32msvc/lib/libmsvcrt.a(dzncs00648.o)
 .idata$7       0x6d655a00        0x4 /opt/xmingw/lib/gcc-lib/i386-mingw32msvc/3.3.1/../../../../i386-mingw32msvc/lib/libmsvcrt.a(dzncs00670.o)
 .idata$7       0x6d655a04        0xc /opt/xmingw/lib/gcc-lib/i386-mingw32msvc/3.3.1/../../../../i386-mingw32msvc/lib/libmsvcrt.a(dznct.o)
                0x6d655a04                _libmsvcrt_a_iname
 .idata$7       0x6d655a10        0x4 /opt/xmingw/lib/gcc-lib/i386-mingw32msvc/3.3.1/../../../../i386-mingw32msvc/lib/libuser32.a(dynvbs00053.o)
 .idata$7       0x6d655a14        0x4 /opt/xmingw/lib/gcc-lib/i386-mingw32msvc/3.3.1/../../../../i386-mingw32msvc/lib/libuser32.a(dynvbs00146.o)
 .idata$7       0x6d655a18        0x4 /opt/xmingw/lib/gcc-lib/i386-mingw32msvc/3.3.1/../../../../i386-mingw32msvc/lib/libuser32.a(dynvbs00179.o)
 .idata$7       0x6d655a1c        0x4 /opt/xmingw/lib/gcc-lib/i386-mingw32msvc/3.3.1/../../../../i386-mingw32msvc/lib/libuser32.a(dynvbs00181.o)
 .idata$7       0x6d655a20        0x4 /opt/xmingw/lib/gcc-lib/i386-mingw32msvc/3.3.1/../../../../i386-mingw32msvc/lib/libuser32.a(dynvbs00235.o)
 .idata$7       0x6d655a24        0x4 /opt/xmingw/lib/gcc-lib/i386-mingw32msvc/3.3.1/../../../../i386-mingw32msvc/lib/libuser32.a(dynvbs00246.o)
 .idata$7       0x6d655a28        0x4 /opt/xmingw/lib/gcc-lib/i386-mingw32msvc/3.3.1/../../../../i386-mingw32msvc/lib/libuser32.a(dynvbs00247.o)
 .idata$7       0x6d655a2c        0x4 /opt/xmingw/lib/gcc-lib/i386-mingw32msvc/3.3.1/../../../../i386-mingw32msvc/lib/libuser32.a(dynvbs00249.o)
 .idata$7       0x6d655a30        0x4 /opt/xmingw/lib/gcc-lib/i386-mingw32msvc/3.3.1/../../../../i386-mingw32msvc/lib/libuser32.a(dynvbs00251.o)
 .idata$7       0x6d655a34        0x4 /opt/xmingw/lib/gcc-lib/i386-mingw32msvc/3.3.1/../../../../i386-mingw32msvc/lib/libuser32.a(dynvbs00252.o)
 .idata$7       0x6d655a38        0x4 /opt/xmingw/lib/gcc-lib/i386-mingw32msvc/3.3.1/../../../../i386-mingw32msvc/lib/libuser32.a(dynvbs00253.o)
 .idata$7       0x6d655a3c        0x4 /opt/xmingw/lib/gcc-lib/i386-mingw32msvc/3.3.1/../../../../i386-mingw32msvc/lib/libuser32.a(dynvbs00254.o)
 .idata$7       0x6d655a40        0x4 /opt/xmingw/lib/gcc-lib/i386-mingw32msvc/3.3.1/../../../../i386-mingw32msvc/lib/libuser32.a(dynvbs00346.o)
 .idata$7       0x6d655a44        0x4 /opt/xmingw/lib/gcc-lib/i386-mingw32msvc/3.3.1/../../../../i386-mingw32msvc/lib/libuser32.a(dynvbs00383.o)
 .idata$7       0x6d655a48        0x4 /opt/xmingw/lib/gcc-lib/i386-mingw32msvc/3.3.1/../../../../i386-mingw32msvc/lib/libuser32.a(dynvbs00429.o)
 .idata$7       0x6d655a4c        0x4 /opt/xmingw/lib/gcc-lib/i386-mingw32msvc/3.3.1/../../../../i386-mingw32msvc/lib/libuser32.a(dynvbs00430.o)
 .idata$7       0x6d655a50        0x4 /opt/xmingw/lib/gcc-lib/i386-mingw32msvc/3.3.1/../../../../i386-mingw32msvc/lib/libuser32.a(dynvbs00438.o)
 .idata$7       0x6d655a54        0x4 /opt/xmingw/lib/gcc-lib/i386-mingw32msvc/3.3.1/../../../../i386-mingw32msvc/lib/libuser32.a(dynvbs00482.o)
 .idata$7       0x6d655a58        0x4 /opt/xmingw/lib/gcc-lib/i386-mingw32msvc/3.3.1/../../../../i386-mingw32msvc/lib/libuser32.a(dynvbs00483.o)
 .idata$7       0x6d655a5c        0x4 /opt/xmingw/lib/gcc-lib/i386-mingw32msvc/3.3.1/../../../../i386-mingw32msvc/lib/libuser32.a(dynvbs00494.o)
 .idata$7       0x6d655a60        0x4 /opt/xmingw/lib/gcc-lib/i386-mingw32msvc/3.3.1/../../../../i386-mingw32msvc/lib/libuser32.a(dynvbs00506.o)
 .idata$7       0x6d655a64        0x4 /opt/xmingw/lib/gcc-lib/i386-mingw32msvc/3.3.1/../../../../i386-mingw32msvc/lib/libuser32.a(dynvbs00518.o)
 .idata$7       0x6d655a68        0x4 /opt/xmingw/lib/gcc-lib/i386-mingw32msvc/3.3.1/../../../../i386-mingw32msvc/lib/libuser32.a(dynvbs00519.o)
 .idata$7       0x6d655a6c        0x4 /opt/xmingw/lib/gcc-lib/i386-mingw32msvc/3.3.1/../../../../i386-mingw32msvc/lib/libuser32.a(dynvbs00522.o)
 .idata$7       0x6d655a70        0x4 /opt/xmingw/lib/gcc-lib/i386-mingw32msvc/3.3.1/../../../../i386-mingw32msvc/lib/libuser32.a(dynvbs00574.o)
 .idata$7       0x6d655a74        0xc /opt/xmingw/lib/gcc-lib/i386-mingw32msvc/3.3.1/../../../../i386-mingw32msvc/lib/libuser32.a(dynvbt.o)
                0x6d655a74                _libuser32_a_iname

.CRT
 *(SORT(.CRT$*))

.endjunk        0x6d656000        0x0
                0x6d656000                PROVIDE (end, .)
                0x6d656000                PROVIDE (_end, .)
                0x6d656000                __end__ = .

.rsrc           0x6d656000     0x2800
 *(.rsrc)
 .rsrc          0x6d656000     0x270c res.o
 *(SORT(.rsrc$*))

.reloc          0x6d659000     0x1a00
 *(.reloc)
 .reloc         0x6d659000      0xc78 FilterFoundry.exp
 .reloc         0x6d659c78      0xc78 dll stuff

.stab
 *(.stab)

.stabstr
 *(.stabstr)
OUTPUT(dist/FilterFoundry.8bf pei-i386)
LOAD dll stuff
